
project-lab4.elf:     file format elf32-littlearm

Sections:
Idx Name          Size      VMA       LMA       File off  Algn
  0 .isr_vector   0000010c  08000000  08000000  00010000  2**0
                  CONTENTS, ALLOC, LOAD, READONLY, DATA
  1 .text         000020fc  0800010c  0800010c  0001010c  2**2
                  CONTENTS, ALLOC, LOAD, READONLY, CODE
  2 .rodata       00000064  08002208  08002208  00012208  2**0
                  CONTENTS, ALLOC, LOAD, READONLY, DATA
  3 .ARM.extab    00000000  0800226c  0800226c  00020070  2**0
                  CONTENTS
  4 .ARM          00000000  0800226c  0800226c  00020070  2**0
                  CONTENTS
  5 .preinit_array 00000000  0800226c  0800226c  00020070  2**0
                  CONTENTS, ALLOC, LOAD, DATA
  6 .init_array   00000004  0800226c  0800226c  0001226c  2**2
                  CONTENTS, ALLOC, LOAD, DATA
  7 .fini_array   00000004  08002270  08002270  00012270  2**2
                  CONTENTS, ALLOC, LOAD, DATA
  8 .data         00000070  20000000  08002274  00020000  2**2
                  CONTENTS, ALLOC, LOAD, DATA
  9 .bss          000000f0  20000070  080022e4  00020070  2**2
                  ALLOC
 10 ._user_heap_stack 00000600  20000160  080022e4  00020160  2**0
                  ALLOC
 11 .ARM.attributes 00000029  00000000  00000000  00020070  2**0
                  CONTENTS, READONLY
 12 .comment      00000053  00000000  00000000  00020099  2**0
                  CONTENTS, READONLY
 13 .debug_frame  0000049c  00000000  00000000  000200ec  2**2
                  CONTENTS, READONLY, DEBUGGING, OCTETS

Disassembly of section .text:

0800010c <__do_global_dtors_aux>:
 800010c:	b510      	push	{r4, lr}
 800010e:	4c05      	ldr	r4, [pc, #20]	; (8000124 <__do_global_dtors_aux+0x18>)
 8000110:	7823      	ldrb	r3, [r4, #0]
 8000112:	b933      	cbnz	r3, 8000122 <__do_global_dtors_aux+0x16>
 8000114:	4b04      	ldr	r3, [pc, #16]	; (8000128 <__do_global_dtors_aux+0x1c>)
 8000116:	b113      	cbz	r3, 800011e <__do_global_dtors_aux+0x12>
 8000118:	4804      	ldr	r0, [pc, #16]	; (800012c <__do_global_dtors_aux+0x20>)
 800011a:	f3af 8000 	nop.w
 800011e:	2301      	movs	r3, #1
 8000120:	7023      	strb	r3, [r4, #0]
 8000122:	bd10      	pop	{r4, pc}
 8000124:	20000070 	.word	0x20000070
 8000128:	00000000 	.word	0x00000000
 800012c:	080021f0 	.word	0x080021f0

08000130 <frame_dummy>:
 8000130:	b508      	push	{r3, lr}
 8000132:	4b03      	ldr	r3, [pc, #12]	; (8000140 <frame_dummy+0x10>)
 8000134:	b11b      	cbz	r3, 800013e <frame_dummy+0xe>
 8000136:	4903      	ldr	r1, [pc, #12]	; (8000144 <frame_dummy+0x14>)
 8000138:	4803      	ldr	r0, [pc, #12]	; (8000148 <frame_dummy+0x18>)
 800013a:	f3af 8000 	nop.w
 800013e:	bd08      	pop	{r3, pc}
 8000140:	00000000 	.word	0x00000000
 8000144:	20000074 	.word	0x20000074
 8000148:	080021f0 	.word	0x080021f0

0800014c <strlen>:
 800014c:	4603      	mov	r3, r0
 800014e:	f813 2b01 	ldrb.w	r2, [r3], #1
 8000152:	2a00      	cmp	r2, #0
 8000154:	d1fb      	bne.n	800014e <strlen+0x2>
 8000156:	1a18      	subs	r0, r3, r0
 8000158:	3801      	subs	r0, #1
 800015a:	4770      	bx	lr

0800015c <addtolist>:
 800015c:	4a16      	ldr	r2, [pc, #88]	; (80001b8 <addtolist+0x5c>)
 800015e:	b570      	push	{r4, r5, r6, lr}
 8000160:	6813      	ldr	r3, [r2, #0]
 8000162:	b12b      	cbz	r3, 8000170 <addtolist+0x14>
 8000164:	6859      	ldr	r1, [r3, #4]
 8000166:	6844      	ldr	r4, [r0, #4]
 8000168:	42a1      	cmp	r1, r4
 800016a:	d91e      	bls.n	80001aa <addtolist+0x4e>
 800016c:	1b09      	subs	r1, r1, r4
 800016e:	6059      	str	r1, [r3, #4]
 8000170:	6143      	str	r3, [r0, #20]
 8000172:	6010      	str	r0, [r2, #0]
 8000174:	bd70      	pop	{r4, r5, r6, pc}
 8000176:	bf04      	itt	eq
 8000178:	3501      	addeq	r5, #1
 800017a:	6045      	streq	r5, [r0, #4]
 800017c:	684d      	ldr	r5, [r1, #4]
 800017e:	6844      	ldr	r4, [r0, #4]
 8000180:	1b64      	subs	r4, r4, r5
 8000182:	694d      	ldr	r5, [r1, #20]
 8000184:	6044      	str	r4, [r0, #4]
 8000186:	460c      	mov	r4, r1
 8000188:	b195      	cbz	r5, 80001b0 <addtolist+0x54>
 800018a:	4629      	mov	r1, r5
 800018c:	684d      	ldr	r5, [r1, #4]
 800018e:	6846      	ldr	r6, [r0, #4]
 8000190:	42b5      	cmp	r5, r6
 8000192:	d9f0      	bls.n	8000176 <addtolist+0x1a>
 8000194:	b964      	cbnz	r4, 80001b0 <addtolist+0x54>
 8000196:	6143      	str	r3, [r0, #20]
 8000198:	6010      	str	r0, [r2, #0]
 800019a:	6943      	ldr	r3, [r0, #20]
 800019c:	2b00      	cmp	r3, #0
 800019e:	d0e9      	beq.n	8000174 <addtolist+0x18>
 80001a0:	685a      	ldr	r2, [r3, #4]
 80001a2:	6841      	ldr	r1, [r0, #4]
 80001a4:	1a52      	subs	r2, r2, r1
 80001a6:	605a      	str	r2, [r3, #4]
 80001a8:	e7e4      	b.n	8000174 <addtolist+0x18>
 80001aa:	4619      	mov	r1, r3
 80001ac:	2400      	movs	r4, #0
 80001ae:	e7ed      	b.n	800018c <addtolist+0x30>
 80001b0:	6963      	ldr	r3, [r4, #20]
 80001b2:	6143      	str	r3, [r0, #20]
 80001b4:	6160      	str	r0, [r4, #20]
 80001b6:	e7f0      	b.n	800019a <addtolist+0x3e>
 80001b8:	20000094 	.word	0x20000094

080001bc <SCH_Add_Task>:
 80001bc:	b5f8      	push	{r3, r4, r5, r6, r7, lr}
 80001be:	4607      	mov	r7, r0
 80001c0:	2018      	movs	r0, #24
 80001c2:	4615      	mov	r5, r2
 80001c4:	460e      	mov	r6, r1
 80001c6:	f001 fbc1 	bl	800194c <malloc>
 80001ca:	4a08      	ldr	r2, [pc, #32]	; (80001ec <SCH_Add_Task+0x30>)
 80001cc:	6813      	ldr	r3, [r2, #0]
 80001ce:	b158      	cbz	r0, 80001e8 <SCH_Add_Task+0x2c>
 80001d0:	2100      	movs	r1, #0
 80001d2:	e9c0 7600 	strd	r7, r6, [r0]
 80001d6:	e9c0 3104 	strd	r3, r1, [r0, #16]
 80001da:	6085      	str	r5, [r0, #8]
 80001dc:	3301      	adds	r3, #1
 80001de:	7301      	strb	r1, [r0, #12]
 80001e0:	6013      	str	r3, [r2, #0]
 80001e2:	f7ff ffbb 	bl	800015c <addtolist>
 80001e6:	6903      	ldr	r3, [r0, #16]
 80001e8:	4618      	mov	r0, r3
 80001ea:	bdf8      	pop	{r3, r4, r5, r6, r7, pc}
 80001ec:	2000008c 	.word	0x2000008c

080001f0 <SCH_Update>:
 80001f0:	4b06      	ldr	r3, [pc, #24]	; (800020c <SCH_Update+0x1c>)
 80001f2:	681a      	ldr	r2, [r3, #0]
 80001f4:	b14a      	cbz	r2, 800020a <SCH_Update+0x1a>
 80001f6:	6853      	ldr	r3, [r2, #4]
 80001f8:	b91b      	cbnz	r3, 8000202 <SCH_Update+0x12>
 80001fa:	7b13      	ldrb	r3, [r2, #12]
 80001fc:	3301      	adds	r3, #1
 80001fe:	7313      	strb	r3, [r2, #12]
 8000200:	4770      	bx	lr
 8000202:	3b01      	subs	r3, #1
 8000204:	6053      	str	r3, [r2, #4]
 8000206:	2b00      	cmp	r3, #0
 8000208:	d0f7      	beq.n	80001fa <SCH_Update+0xa>
 800020a:	4770      	bx	lr
 800020c:	20000094 	.word	0x20000094

08000210 <SCH_Dispatch_Tasks>:
 8000210:	b538      	push	{r3, r4, r5, lr}
 8000212:	4d0f      	ldr	r5, [pc, #60]	; (8000250 <SCH_Dispatch_Tasks+0x40>)
 8000214:	682c      	ldr	r4, [r5, #0]
 8000216:	6863      	ldr	r3, [r4, #4]
 8000218:	b943      	cbnz	r3, 800022c <SCH_Dispatch_Tasks+0x1c>
 800021a:	68a2      	ldr	r2, [r4, #8]
 800021c:	6963      	ldr	r3, [r4, #20]
 800021e:	b942      	cbnz	r2, 8000232 <SCH_Dispatch_Tasks+0x22>
 8000220:	602b      	str	r3, [r5, #0]
 8000222:	6823      	ldr	r3, [r4, #0]
 8000224:	4798      	blx	r3
 8000226:	4620      	mov	r0, r4
 8000228:	f001 fb98 	bl	800195c <free>
 800022c:	682c      	ldr	r4, [r5, #0]
 800022e:	b934      	cbnz	r4, 800023e <SCH_Dispatch_Tasks+0x2e>
 8000230:	bd38      	pop	{r3, r4, r5, pc}
 8000232:	4620      	mov	r0, r4
 8000234:	6062      	str	r2, [r4, #4]
 8000236:	602b      	str	r3, [r5, #0]
 8000238:	f7ff ff90 	bl	800015c <addtolist>
 800023c:	e7f6      	b.n	800022c <SCH_Dispatch_Tasks+0x1c>
 800023e:	7b23      	ldrb	r3, [r4, #12]
 8000240:	b123      	cbz	r3, 800024c <SCH_Dispatch_Tasks+0x3c>
 8000242:	6823      	ldr	r3, [r4, #0]
 8000244:	4798      	blx	r3
 8000246:	7b23      	ldrb	r3, [r4, #12]
 8000248:	3b01      	subs	r3, #1
 800024a:	7323      	strb	r3, [r4, #12]
 800024c:	6964      	ldr	r4, [r4, #20]
 800024e:	e7ee      	b.n	800022e <SCH_Dispatch_Tasks+0x1e>
 8000250:	20000094 	.word	0x20000094

08000254 <HAL_UART_RxCpltCallback>:
 8000254:	b508      	push	{r3, lr}
 8000256:	6802      	ldr	r2, [r0, #0]
 8000258:	4b08      	ldr	r3, [pc, #32]	; (800027c <HAL_UART_RxCpltCallback+0x28>)
 800025a:	429a      	cmp	r2, r3
 800025c:	d10c      	bne.n	8000278 <HAL_UART_RxCpltCallback+0x24>
 800025e:	2332      	movs	r3, #50	; 0x32
 8000260:	2201      	movs	r2, #1
 8000262:	4907      	ldr	r1, [pc, #28]	; (8000280 <HAL_UART_RxCpltCallback+0x2c>)
 8000264:	4807      	ldr	r0, [pc, #28]	; (8000284 <HAL_UART_RxCpltCallback+0x30>)
 8000266:	f001 f91c 	bl	80014a2 <HAL_UART_Transmit>
 800026a:	e8bd 4008 	ldmia.w	sp!, {r3, lr}
 800026e:	2201      	movs	r2, #1
 8000270:	4903      	ldr	r1, [pc, #12]	; (8000280 <HAL_UART_RxCpltCallback+0x2c>)
 8000272:	4804      	ldr	r0, [pc, #16]	; (8000284 <HAL_UART_RxCpltCallback+0x30>)
 8000274:	f001 bb2f 	b.w	80018d6 <HAL_UART_Receive_IT>
 8000278:	bd08      	pop	{r3, pc}
 800027a:	bf00      	nop
 800027c:	40004400 	.word	0x40004400
 8000280:	20000098 	.word	0x20000098
 8000284:	200000f0 	.word	0x200000f0

08000288 <get_time>:
 8000288:	b510      	push	{r4, lr}
 800028a:	4b09      	ldr	r3, [pc, #36]	; (80002b0 <get_time+0x28>)
 800028c:	4c09      	ldr	r4, [pc, #36]	; (80002b4 <get_time+0x2c>)
 800028e:	681a      	ldr	r2, [r3, #0]
 8000290:	4909      	ldr	r1, [pc, #36]	; (80002b8 <get_time+0x30>)
 8000292:	4620      	mov	r0, r4
 8000294:	f001 fc28 	bl	8001ae8 <siprintf>
 8000298:	4620      	mov	r0, r4
 800029a:	f7ff ff57 	bl	800014c <strlen>
 800029e:	4621      	mov	r1, r4
 80002a0:	e8bd 4010 	ldmia.w	sp!, {r4, lr}
 80002a4:	b282      	uxth	r2, r0
 80002a6:	f04f 33ff 	mov.w	r3, #4294967295
 80002aa:	4804      	ldr	r0, [pc, #16]	; (80002bc <get_time+0x34>)
 80002ac:	f001 b8f9 	b.w	80014a2 <HAL_UART_Transmit>
 80002b0:	20000090 	.word	0x20000090
 80002b4:	20000138 	.word	0x20000138
 80002b8:	08002208 	.word	0x08002208
 80002bc:	200000f0 	.word	0x200000f0

080002c0 <blink>:
 80002c0:	b508      	push	{r3, lr}
 80002c2:	f7ff ffe1 	bl	8000288 <get_time>
 80002c6:	e8bd 4008 	ldmia.w	sp!, {r3, lr}
 80002ca:	2120      	movs	r1, #32
 80002cc:	4801      	ldr	r0, [pc, #4]	; (80002d4 <blink+0x14>)
 80002ce:	f000 bba4 	b.w	8000a1a <HAL_GPIO_TogglePin>
 80002d2:	bf00      	nop
 80002d4:	40010800 	.word	0x40010800

080002d8 <blink2>:
 80002d8:	f7ff bff2 	b.w	80002c0 <blink>

080002dc <SystemClock_Config>:
 80002dc:	b500      	push	{lr}
 80002de:	b091      	sub	sp, #68	; 0x44
 80002e0:	2224      	movs	r2, #36	; 0x24
 80002e2:	2100      	movs	r1, #0
 80002e4:	a807      	add	r0, sp, #28
 80002e6:	f001 fb41 	bl	800196c <memset>
 80002ea:	2214      	movs	r2, #20
 80002ec:	2100      	movs	r1, #0
 80002ee:	a801      	add	r0, sp, #4
 80002f0:	f001 fb3c 	bl	800196c <memset>
 80002f4:	2302      	movs	r3, #2
 80002f6:	2101      	movs	r1, #1
 80002f8:	9306      	str	r3, [sp, #24]
 80002fa:	2310      	movs	r3, #16
 80002fc:	a806      	add	r0, sp, #24
 80002fe:	e9cd 130a 	strd	r1, r3, [sp, #40]	; 0x28
 8000302:	f000 fb93 	bl	8000a2c <HAL_RCC_OscConfig>
 8000306:	4601      	mov	r1, r0
 8000308:	b108      	cbz	r0, 800030e <SystemClock_Config+0x32>
 800030a:	b672      	cpsid	i
 800030c:	e7fe      	b.n	800030c <SystemClock_Config+0x30>
 800030e:	230f      	movs	r3, #15
 8000310:	e9cd 0003 	strd	r0, r0, [sp, #12]
 8000314:	e9cd 3001 	strd	r3, r0, [sp, #4]
 8000318:	9005      	str	r0, [sp, #20]
 800031a:	a801      	add	r0, sp, #4
 800031c:	f000 fd48 	bl	8000db0 <HAL_RCC_ClockConfig>
 8000320:	b108      	cbz	r0, 8000326 <SystemClock_Config+0x4a>
 8000322:	b672      	cpsid	i
 8000324:	e7fe      	b.n	8000324 <SystemClock_Config+0x48>
 8000326:	b011      	add	sp, #68	; 0x44
 8000328:	f85d fb04 	ldr.w	pc, [sp], #4

0800032c <main>:
 800032c:	b5bf      	push	{r0, r1, r2, r3, r4, r5, r7, lr}
 800032e:	f000 f9a3 	bl	8000678 <HAL_Init>
 8000332:	f7ff ffd3 	bl	80002dc <SystemClock_Config>
 8000336:	2210      	movs	r2, #16
 8000338:	2100      	movs	r1, #0
 800033a:	a802      	add	r0, sp, #8
 800033c:	f001 fb16 	bl	800196c <memset>
 8000340:	f641 723f 	movw	r2, #7999	; 0x1f3f
 8000344:	f04f 4180 	mov.w	r1, #1073741824	; 0x40000000
 8000348:	4e3d      	ldr	r6, [pc, #244]	; (8000440 <main+0x114>)
 800034a:	2300      	movs	r3, #0
 800034c:	e9c6 1200 	strd	r1, r2, [r6]
 8000350:	2209      	movs	r2, #9
 8000352:	4630      	mov	r0, r6
 8000354:	e9cd 3300 	strd	r3, r3, [sp]
 8000358:	e9c6 2303 	strd	r2, r3, [r6, #12]
 800035c:	60b3      	str	r3, [r6, #8]
 800035e:	61b3      	str	r3, [r6, #24]
 8000360:	f000 fed8 	bl	8001114 <HAL_TIM_Base_Init>
 8000364:	b108      	cbz	r0, 800036a <main+0x3e>
 8000366:	b672      	cpsid	i
 8000368:	e7fe      	b.n	8000368 <main+0x3c>
 800036a:	f44f 5380 	mov.w	r3, #4096	; 0x1000
 800036e:	4630      	mov	r0, r6
 8000370:	a902      	add	r1, sp, #8
 8000372:	9302      	str	r3, [sp, #8]
 8000374:	f000 ff04 	bl	8001180 <HAL_TIM_ConfigClockSource>
 8000378:	b108      	cbz	r0, 800037e <main+0x52>
 800037a:	b672      	cpsid	i
 800037c:	e7fe      	b.n	800037c <main+0x50>
 800037e:	e9cd 0000 	strd	r0, r0, [sp]
 8000382:	4669      	mov	r1, sp
 8000384:	4630      	mov	r0, r6
 8000386:	f000 ff97 	bl	80012b8 <HAL_TIMEx_MasterConfigSynchronization>
 800038a:	4604      	mov	r4, r0
 800038c:	b108      	cbz	r0, 8000392 <main+0x66>
 800038e:	b672      	cpsid	i
 8000390:	e7fe      	b.n	8000390 <main+0x64>
 8000392:	4601      	mov	r1, r0
 8000394:	2210      	movs	r2, #16
 8000396:	a802      	add	r0, sp, #8
 8000398:	f001 fae8 	bl	800196c <memset>
 800039c:	4b29      	ldr	r3, [pc, #164]	; (8000444 <main+0x118>)
 800039e:	2120      	movs	r1, #32
 80003a0:	699a      	ldr	r2, [r3, #24]
 80003a2:	4829      	ldr	r0, [pc, #164]	; (8000448 <main+0x11c>)
 80003a4:	f042 0204 	orr.w	r2, r2, #4
 80003a8:	619a      	str	r2, [r3, #24]
 80003aa:	699b      	ldr	r3, [r3, #24]
 80003ac:	4622      	mov	r2, r4
 80003ae:	f003 0304 	and.w	r3, r3, #4
 80003b2:	9300      	str	r3, [sp, #0]
 80003b4:	9b00      	ldr	r3, [sp, #0]
 80003b6:	2701      	movs	r7, #1
 80003b8:	f000 fb2a 	bl	8000a10 <HAL_GPIO_WritePin>
 80003bc:	2320      	movs	r3, #32
 80003be:	e9cd 3702 	strd	r3, r7, [sp, #8]
 80003c2:	2302      	movs	r3, #2
 80003c4:	4820      	ldr	r0, [pc, #128]	; (8000448 <main+0x11c>)
 80003c6:	a902      	add	r1, sp, #8
 80003c8:	9404      	str	r4, [sp, #16]
 80003ca:	9305      	str	r3, [sp, #20]
 80003cc:	f000 fa4a 	bl	8000864 <HAL_GPIO_Init>
 80003d0:	f44f 5316 	mov.w	r3, #9600	; 0x2580
 80003d4:	4d1d      	ldr	r5, [pc, #116]	; (800044c <main+0x120>)
 80003d6:	4a1e      	ldr	r2, [pc, #120]	; (8000450 <main+0x124>)
 80003d8:	4628      	mov	r0, r5
 80003da:	e9c5 2300 	strd	r2, r3, [r5]
 80003de:	230c      	movs	r3, #12
 80003e0:	e9c5 4402 	strd	r4, r4, [r5, #8]
 80003e4:	e9c5 3405 	strd	r3, r4, [r5, #20]
 80003e8:	612c      	str	r4, [r5, #16]
 80003ea:	61ec      	str	r4, [r5, #28]
 80003ec:	f001 f82a 	bl	8001444 <HAL_UART_Init>
 80003f0:	4604      	mov	r4, r0
 80003f2:	b108      	cbz	r0, 80003f8 <main+0xcc>
 80003f4:	b672      	cpsid	i
 80003f6:	e7fe      	b.n	80003f6 <main+0xca>
 80003f8:	4630      	mov	r0, r6
 80003fa:	f000 fd95 	bl	8000f28 <HAL_TIM_Base_Start_IT>
 80003fe:	463a      	mov	r2, r7
 8000400:	4914      	ldr	r1, [pc, #80]	; (8000454 <main+0x128>)
 8000402:	4628      	mov	r0, r5
 8000404:	f001 fa67 	bl	80018d6 <HAL_UART_Receive_IT>
 8000408:	4622      	mov	r2, r4
 800040a:	2164      	movs	r1, #100	; 0x64
 800040c:	4812      	ldr	r0, [pc, #72]	; (8000458 <main+0x12c>)
 800040e:	f7ff fed5 	bl	80001bc <SCH_Add_Task>
 8000412:	4622      	mov	r2, r4
 8000414:	2164      	movs	r1, #100	; 0x64
 8000416:	4810      	ldr	r0, [pc, #64]	; (8000458 <main+0x12c>)
 8000418:	f7ff fed0 	bl	80001bc <SCH_Add_Task>
 800041c:	4622      	mov	r2, r4
 800041e:	2164      	movs	r1, #100	; 0x64
 8000420:	480e      	ldr	r0, [pc, #56]	; (800045c <main+0x130>)
 8000422:	f7ff fecb 	bl	80001bc <SCH_Add_Task>
 8000426:	4622      	mov	r2, r4
 8000428:	2164      	movs	r1, #100	; 0x64
 800042a:	480c      	ldr	r0, [pc, #48]	; (800045c <main+0x130>)
 800042c:	f7ff fec6 	bl	80001bc <SCH_Add_Task>
 8000430:	2264      	movs	r2, #100	; 0x64
 8000432:	2167      	movs	r1, #103	; 0x67
 8000434:	4809      	ldr	r0, [pc, #36]	; (800045c <main+0x130>)
 8000436:	f7ff fec1 	bl	80001bc <SCH_Add_Task>
 800043a:	f7ff fee9 	bl	8000210 <SCH_Dispatch_Tasks>
 800043e:	e7fc      	b.n	800043a <main+0x10e>
 8000440:	200000a8 	.word	0x200000a8
 8000444:	40021000 	.word	0x40021000
 8000448:	40010800 	.word	0x40010800
 800044c:	200000f0 	.word	0x200000f0
 8000450:	40004400 	.word	0x40004400
 8000454:	20000098 	.word	0x20000098
 8000458:	080002c1 	.word	0x080002c1
 800045c:	080002d9 	.word	0x080002d9

08000460 <HAL_TIM_PeriodElapsedCallback>:
 8000460:	4a02      	ldr	r2, [pc, #8]	; (800046c <HAL_TIM_PeriodElapsedCallback+0xc>)
 8000462:	6813      	ldr	r3, [r2, #0]
 8000464:	330a      	adds	r3, #10
 8000466:	6013      	str	r3, [r2, #0]
 8000468:	f7ff bec2 	b.w	80001f0 <SCH_Update>
 800046c:	20000090 	.word	0x20000090

08000470 <HAL_MspInit>:
 8000470:	4b0e      	ldr	r3, [pc, #56]	; (80004ac <HAL_MspInit+0x3c>)
 8000472:	b082      	sub	sp, #8
 8000474:	699a      	ldr	r2, [r3, #24]
 8000476:	f042 0201 	orr.w	r2, r2, #1
 800047a:	619a      	str	r2, [r3, #24]
 800047c:	699a      	ldr	r2, [r3, #24]
 800047e:	f002 0201 	and.w	r2, r2, #1
 8000482:	9200      	str	r2, [sp, #0]
 8000484:	9a00      	ldr	r2, [sp, #0]
 8000486:	69da      	ldr	r2, [r3, #28]
 8000488:	f042 5280 	orr.w	r2, r2, #268435456	; 0x10000000
 800048c:	61da      	str	r2, [r3, #28]
 800048e:	69db      	ldr	r3, [r3, #28]
 8000490:	4a07      	ldr	r2, [pc, #28]	; (80004b0 <HAL_MspInit+0x40>)
 8000492:	f003 5380 	and.w	r3, r3, #268435456	; 0x10000000
 8000496:	9301      	str	r3, [sp, #4]
 8000498:	9b01      	ldr	r3, [sp, #4]
 800049a:	6853      	ldr	r3, [r2, #4]
 800049c:	f023 63e0 	bic.w	r3, r3, #117440512	; 0x7000000
 80004a0:	f043 7300 	orr.w	r3, r3, #33554432	; 0x2000000
 80004a4:	6053      	str	r3, [r2, #4]
 80004a6:	b002      	add	sp, #8
 80004a8:	4770      	bx	lr
 80004aa:	bf00      	nop
 80004ac:	40021000 	.word	0x40021000
 80004b0:	40010000 	.word	0x40010000

080004b4 <HAL_TIM_Base_MspInit>:
 80004b4:	6803      	ldr	r3, [r0, #0]
 80004b6:	b507      	push	{r0, r1, r2, lr}
 80004b8:	f1b3 4f80 	cmp.w	r3, #1073741824	; 0x40000000
 80004bc:	d115      	bne.n	80004ea <HAL_TIM_Base_MspInit+0x36>
 80004be:	f503 3304 	add.w	r3, r3, #135168	; 0x21000
 80004c2:	69da      	ldr	r2, [r3, #28]
 80004c4:	201c      	movs	r0, #28
 80004c6:	f042 0201 	orr.w	r2, r2, #1
 80004ca:	61da      	str	r2, [r3, #28]
 80004cc:	2200      	movs	r2, #0
 80004ce:	69db      	ldr	r3, [r3, #28]
 80004d0:	4611      	mov	r1, r2
 80004d2:	f003 0301 	and.w	r3, r3, #1
 80004d6:	9301      	str	r3, [sp, #4]
 80004d8:	9b01      	ldr	r3, [sp, #4]
 80004da:	f000 f903 	bl	80006e4 <HAL_NVIC_SetPriority>
 80004de:	201c      	movs	r0, #28
 80004e0:	b003      	add	sp, #12
 80004e2:	f85d eb04 	ldr.w	lr, [sp], #4
 80004e6:	f000 b92f 	b.w	8000748 <HAL_NVIC_EnableIRQ>
 80004ea:	b003      	add	sp, #12
 80004ec:	f85d fb04 	ldr.w	pc, [sp], #4

080004f0 <HAL_UART_MspInit>:
 80004f0:	b510      	push	{r4, lr}
 80004f2:	4604      	mov	r4, r0
 80004f4:	b086      	sub	sp, #24
 80004f6:	2210      	movs	r2, #16
 80004f8:	2100      	movs	r1, #0
 80004fa:	a802      	add	r0, sp, #8
 80004fc:	f001 fa36 	bl	800196c <memset>
 8000500:	6822      	ldr	r2, [r4, #0]
 8000502:	4b1a      	ldr	r3, [pc, #104]	; (800056c <HAL_UART_MspInit+0x7c>)
 8000504:	429a      	cmp	r2, r3
 8000506:	d12f      	bne.n	8000568 <HAL_UART_MspInit+0x78>
 8000508:	f503 33e6 	add.w	r3, r3, #117760	; 0x1cc00
 800050c:	69da      	ldr	r2, [r3, #28]
 800050e:	4818      	ldr	r0, [pc, #96]	; (8000570 <HAL_UART_MspInit+0x80>)
 8000510:	f442 3200 	orr.w	r2, r2, #131072	; 0x20000
 8000514:	61da      	str	r2, [r3, #28]
 8000516:	69da      	ldr	r2, [r3, #28]
 8000518:	a902      	add	r1, sp, #8
 800051a:	f402 3200 	and.w	r2, r2, #131072	; 0x20000
 800051e:	9200      	str	r2, [sp, #0]
 8000520:	9a00      	ldr	r2, [sp, #0]
 8000522:	699a      	ldr	r2, [r3, #24]
 8000524:	2400      	movs	r4, #0
 8000526:	f042 0204 	orr.w	r2, r2, #4
 800052a:	619a      	str	r2, [r3, #24]
 800052c:	699b      	ldr	r3, [r3, #24]
 800052e:	2204      	movs	r2, #4
 8000530:	f003 0304 	and.w	r3, r3, #4
 8000534:	9301      	str	r3, [sp, #4]
 8000536:	9b01      	ldr	r3, [sp, #4]
 8000538:	2302      	movs	r3, #2
 800053a:	e9cd 2302 	strd	r2, r3, [sp, #8]
 800053e:	2303      	movs	r3, #3
 8000540:	9305      	str	r3, [sp, #20]
 8000542:	f000 f98f 	bl	8000864 <HAL_GPIO_Init>
 8000546:	2308      	movs	r3, #8
 8000548:	4809      	ldr	r0, [pc, #36]	; (8000570 <HAL_UART_MspInit+0x80>)
 800054a:	eb0d 0103 	add.w	r1, sp, r3
 800054e:	e9cd 3402 	strd	r3, r4, [sp, #8]
 8000552:	9404      	str	r4, [sp, #16]
 8000554:	f000 f986 	bl	8000864 <HAL_GPIO_Init>
 8000558:	2026      	movs	r0, #38	; 0x26
 800055a:	4622      	mov	r2, r4
 800055c:	4621      	mov	r1, r4
 800055e:	f000 f8c1 	bl	80006e4 <HAL_NVIC_SetPriority>
 8000562:	2026      	movs	r0, #38	; 0x26
 8000564:	f000 f8f0 	bl	8000748 <HAL_NVIC_EnableIRQ>
 8000568:	b006      	add	sp, #24
 800056a:	bd10      	pop	{r4, pc}
 800056c:	40004400 	.word	0x40004400
 8000570:	40010800 	.word	0x40010800

08000574 <NMI_Handler>:
 8000574:	e7fe      	b.n	8000574 <NMI_Handler>

08000576 <HardFault_Handler>:
 8000576:	e7fe      	b.n	8000576 <HardFault_Handler>

08000578 <MemManage_Handler>:
 8000578:	e7fe      	b.n	8000578 <MemManage_Handler>

0800057a <BusFault_Handler>:
 800057a:	e7fe      	b.n	800057a <BusFault_Handler>

0800057c <UsageFault_Handler>:
 800057c:	e7fe      	b.n	800057c <UsageFault_Handler>

0800057e <SVC_Handler>:
 800057e:	4770      	bx	lr

08000580 <DebugMon_Handler>:
 8000580:	4770      	bx	lr

08000582 <PendSV_Handler>:
 8000582:	4770      	bx	lr

08000584 <SysTick_Handler>:
 8000584:	f000 b88a 	b.w	800069c <HAL_IncTick>

08000588 <TIM2_IRQHandler>:
 8000588:	4801      	ldr	r0, [pc, #4]	; (8000590 <TIM2_IRQHandler+0x8>)
 800058a:	f000 bcf7 	b.w	8000f7c <HAL_TIM_IRQHandler>
 800058e:	bf00      	nop
 8000590:	200000a8 	.word	0x200000a8

08000594 <USART2_IRQHandler>:
 8000594:	4801      	ldr	r0, [pc, #4]	; (800059c <USART2_IRQHandler+0x8>)
 8000596:	f001 b83b 	b.w	8001610 <HAL_UART_IRQHandler>
 800059a:	bf00      	nop
 800059c:	200000f0 	.word	0x200000f0

080005a0 <_sbrk>:
 80005a0:	4b0b      	ldr	r3, [pc, #44]	; (80005d0 <_sbrk+0x30>)
 80005a2:	4602      	mov	r2, r0
 80005a4:	6819      	ldr	r1, [r3, #0]
 80005a6:	b510      	push	{r4, lr}
 80005a8:	b909      	cbnz	r1, 80005ae <_sbrk+0xe>
 80005aa:	490a      	ldr	r1, [pc, #40]	; (80005d4 <_sbrk+0x34>)
 80005ac:	6019      	str	r1, [r3, #0]
 80005ae:	6818      	ldr	r0, [r3, #0]
 80005b0:	4909      	ldr	r1, [pc, #36]	; (80005d8 <_sbrk+0x38>)
 80005b2:	4c0a      	ldr	r4, [pc, #40]	; (80005dc <_sbrk+0x3c>)
 80005b4:	4402      	add	r2, r0
 80005b6:	1b09      	subs	r1, r1, r4
 80005b8:	428a      	cmp	r2, r1
 80005ba:	d906      	bls.n	80005ca <_sbrk+0x2a>
 80005bc:	f001 f99c 	bl	80018f8 <__errno>
 80005c0:	230c      	movs	r3, #12
 80005c2:	6003      	str	r3, [r0, #0]
 80005c4:	f04f 30ff 	mov.w	r0, #4294967295
 80005c8:	bd10      	pop	{r4, pc}
 80005ca:	601a      	str	r2, [r3, #0]
 80005cc:	e7fc      	b.n	80005c8 <_sbrk+0x28>
 80005ce:	bf00      	nop
 80005d0:	2000009c 	.word	0x2000009c
 80005d4:	20000160 	.word	0x20000160
 80005d8:	20002800 	.word	0x20002800
 80005dc:	00000400 	.word	0x00000400

080005e0 <SystemInit>:
 80005e0:	4770      	bx	lr
	...

080005e4 <Reset_Handler>:
 80005e4:	f7ff fffc 	bl	80005e0 <SystemInit>
 80005e8:	480b      	ldr	r0, [pc, #44]	; (8000618 <LoopFillZerobss+0xe>)
 80005ea:	490c      	ldr	r1, [pc, #48]	; (800061c <LoopFillZerobss+0x12>)
 80005ec:	4a0c      	ldr	r2, [pc, #48]	; (8000620 <LoopFillZerobss+0x16>)
 80005ee:	2300      	movs	r3, #0
 80005f0:	e002      	b.n	80005f8 <LoopCopyDataInit>

080005f2 <CopyDataInit>:
 80005f2:	58d4      	ldr	r4, [r2, r3]
 80005f4:	50c4      	str	r4, [r0, r3]
 80005f6:	3304      	adds	r3, #4

080005f8 <LoopCopyDataInit>:
 80005f8:	18c4      	adds	r4, r0, r3
 80005fa:	428c      	cmp	r4, r1
 80005fc:	d3f9      	bcc.n	80005f2 <CopyDataInit>
 80005fe:	4a09      	ldr	r2, [pc, #36]	; (8000624 <LoopFillZerobss+0x1a>)
 8000600:	4c09      	ldr	r4, [pc, #36]	; (8000628 <LoopFillZerobss+0x1e>)
 8000602:	2300      	movs	r3, #0
 8000604:	e001      	b.n	800060a <LoopFillZerobss>

08000606 <FillZerobss>:
 8000606:	6013      	str	r3, [r2, #0]
 8000608:	3204      	adds	r2, #4

0800060a <LoopFillZerobss>:
 800060a:	42a2      	cmp	r2, r4
 800060c:	d3fb      	bcc.n	8000606 <FillZerobss>
 800060e:	f001 f979 	bl	8001904 <__libc_init_array>
 8000612:	f7ff fe8b 	bl	800032c <main>
 8000616:	4770      	bx	lr
 8000618:	20000000 	.word	0x20000000
 800061c:	20000070 	.word	0x20000070
 8000620:	08002274 	.word	0x08002274
 8000624:	20000070 	.word	0x20000070
 8000628:	20000160 	.word	0x20000160

0800062c <ADC1_2_IRQHandler>:
 800062c:	e7fe      	b.n	800062c <ADC1_2_IRQHandler>
	...

08000630 <HAL_InitTick>:
 8000630:	b538      	push	{r3, r4, r5, lr}
 8000632:	4b0e      	ldr	r3, [pc, #56]	; (800066c <HAL_InitTick+0x3c>)
 8000634:	4605      	mov	r5, r0
 8000636:	7818      	ldrb	r0, [r3, #0]
 8000638:	f44f 737a 	mov.w	r3, #1000	; 0x3e8
 800063c:	fbb3 f3f0 	udiv	r3, r3, r0
 8000640:	4a0b      	ldr	r2, [pc, #44]	; (8000670 <HAL_InitTick+0x40>)
 8000642:	6810      	ldr	r0, [r2, #0]
 8000644:	fbb0 f0f3 	udiv	r0, r0, r3
 8000648:	f000 f88c 	bl	8000764 <HAL_SYSTICK_Config>
 800064c:	4604      	mov	r4, r0
 800064e:	b958      	cbnz	r0, 8000668 <HAL_InitTick+0x38>
 8000650:	2d0f      	cmp	r5, #15
 8000652:	d809      	bhi.n	8000668 <HAL_InitTick+0x38>
 8000654:	4602      	mov	r2, r0
 8000656:	4629      	mov	r1, r5
 8000658:	f04f 30ff 	mov.w	r0, #4294967295
 800065c:	f000 f842 	bl	80006e4 <HAL_NVIC_SetPriority>
 8000660:	4620      	mov	r0, r4
 8000662:	4b04      	ldr	r3, [pc, #16]	; (8000674 <HAL_InitTick+0x44>)
 8000664:	601d      	str	r5, [r3, #0]
 8000666:	bd38      	pop	{r3, r4, r5, pc}
 8000668:	2001      	movs	r0, #1
 800066a:	e7fc      	b.n	8000666 <HAL_InitTick+0x36>
 800066c:	20000004 	.word	0x20000004
 8000670:	20000000 	.word	0x20000000
 8000674:	20000008 	.word	0x20000008

08000678 <HAL_Init>:
 8000678:	4a07      	ldr	r2, [pc, #28]	; (8000698 <HAL_Init+0x20>)
 800067a:	b508      	push	{r3, lr}
 800067c:	6813      	ldr	r3, [r2, #0]
 800067e:	2003      	movs	r0, #3
 8000680:	f043 0310 	orr.w	r3, r3, #16
 8000684:	6013      	str	r3, [r2, #0]
 8000686:	f000 f81b 	bl	80006c0 <HAL_NVIC_SetPriorityGrouping>
 800068a:	200f      	movs	r0, #15
 800068c:	f7ff ffd0 	bl	8000630 <HAL_InitTick>
 8000690:	f7ff feee 	bl	8000470 <HAL_MspInit>
 8000694:	2000      	movs	r0, #0
 8000696:	bd08      	pop	{r3, pc}
 8000698:	40022000 	.word	0x40022000

0800069c <HAL_IncTick>:
 800069c:	4a03      	ldr	r2, [pc, #12]	; (80006ac <HAL_IncTick+0x10>)
 800069e:	4b04      	ldr	r3, [pc, #16]	; (80006b0 <HAL_IncTick+0x14>)
 80006a0:	6811      	ldr	r1, [r2, #0]
 80006a2:	781b      	ldrb	r3, [r3, #0]
 80006a4:	440b      	add	r3, r1
 80006a6:	6013      	str	r3, [r2, #0]
 80006a8:	4770      	bx	lr
 80006aa:	bf00      	nop
 80006ac:	2000014c 	.word	0x2000014c
 80006b0:	20000004 	.word	0x20000004

080006b4 <HAL_GetTick>:
 80006b4:	4b01      	ldr	r3, [pc, #4]	; (80006bc <HAL_GetTick+0x8>)
 80006b6:	6818      	ldr	r0, [r3, #0]
 80006b8:	4770      	bx	lr
 80006ba:	bf00      	nop
 80006bc:	2000014c 	.word	0x2000014c

080006c0 <HAL_NVIC_SetPriorityGrouping>:
 80006c0:	4907      	ldr	r1, [pc, #28]	; (80006e0 <HAL_NVIC_SetPriorityGrouping+0x20>)
 80006c2:	0203      	lsls	r3, r0, #8
 80006c4:	68ca      	ldr	r2, [r1, #12]
 80006c6:	f403 63e0 	and.w	r3, r3, #1792	; 0x700
 80006ca:	f422 62e0 	bic.w	r2, r2, #1792	; 0x700
 80006ce:	0412      	lsls	r2, r2, #16
 80006d0:	0c12      	lsrs	r2, r2, #16
 80006d2:	4313      	orrs	r3, r2
 80006d4:	f043 63bf 	orr.w	r3, r3, #100139008	; 0x5f80000
 80006d8:	f443 3300 	orr.w	r3, r3, #131072	; 0x20000
 80006dc:	60cb      	str	r3, [r1, #12]
 80006de:	4770      	bx	lr
 80006e0:	e000ed00 	.word	0xe000ed00

080006e4 <HAL_NVIC_SetPriority>:
 80006e4:	4b16      	ldr	r3, [pc, #88]	; (8000740 <HAL_NVIC_SetPriority+0x5c>)
 80006e6:	b530      	push	{r4, r5, lr}
 80006e8:	68dc      	ldr	r4, [r3, #12]
 80006ea:	f3c4 2402 	ubfx	r4, r4, #8, #3
 80006ee:	f1c4 0307 	rsb	r3, r4, #7
 80006f2:	1d25      	adds	r5, r4, #4
 80006f4:	2b04      	cmp	r3, #4
 80006f6:	bf28      	it	cs
 80006f8:	2304      	movcs	r3, #4
 80006fa:	2d06      	cmp	r5, #6
 80006fc:	f04f 35ff 	mov.w	r5, #4294967295
 8000700:	bf98      	it	ls
 8000702:	2400      	movls	r4, #0
 8000704:	fa05 f303 	lsl.w	r3, r5, r3
 8000708:	bf88      	it	hi
 800070a:	3c03      	subhi	r4, #3
 800070c:	ea21 0303 	bic.w	r3, r1, r3
 8000710:	40a3      	lsls	r3, r4
 8000712:	fa05 f404 	lsl.w	r4, r5, r4
 8000716:	ea22 0204 	bic.w	r2, r2, r4
 800071a:	2800      	cmp	r0, #0
 800071c:	ea43 0302 	orr.w	r3, r3, r2
 8000720:	bfac      	ite	ge
 8000722:	f100 4060 	addge.w	r0, r0, #3758096384	; 0xe0000000
 8000726:	4a07      	ldrlt	r2, [pc, #28]	; (8000744 <HAL_NVIC_SetPriority+0x60>)
 8000728:	ea4f 1303 	mov.w	r3, r3, lsl #4
 800072c:	b2db      	uxtb	r3, r3
 800072e:	bfab      	itete	ge
 8000730:	f500 4061 	addge.w	r0, r0, #57600	; 0xe100
 8000734:	f000 000f 	andlt.w	r0, r0, #15
 8000738:	f880 3300 	strbge.w	r3, [r0, #768]	; 0x300
 800073c:	5413      	strblt	r3, [r2, r0]
 800073e:	bd30      	pop	{r4, r5, pc}
 8000740:	e000ed00 	.word	0xe000ed00
 8000744:	e000ed14 	.word	0xe000ed14

08000748 <HAL_NVIC_EnableIRQ>:
 8000748:	2800      	cmp	r0, #0
 800074a:	db08      	blt.n	800075e <HAL_NVIC_EnableIRQ+0x16>
 800074c:	2301      	movs	r3, #1
 800074e:	0942      	lsrs	r2, r0, #5
 8000750:	f000 001f 	and.w	r0, r0, #31
 8000754:	fa03 f000 	lsl.w	r0, r3, r0
 8000758:	4b01      	ldr	r3, [pc, #4]	; (8000760 <HAL_NVIC_EnableIRQ+0x18>)
 800075a:	f843 0022 	str.w	r0, [r3, r2, lsl #2]
 800075e:	4770      	bx	lr
 8000760:	e000e100 	.word	0xe000e100

08000764 <HAL_SYSTICK_Config>:
 8000764:	3801      	subs	r0, #1
 8000766:	f1b0 7f80 	cmp.w	r0, #16777216	; 0x1000000
 800076a:	d20a      	bcs.n	8000782 <HAL_SYSTICK_Config+0x1e>
 800076c:	21f0      	movs	r1, #240	; 0xf0
 800076e:	4b06      	ldr	r3, [pc, #24]	; (8000788 <HAL_SYSTICK_Config+0x24>)
 8000770:	4a06      	ldr	r2, [pc, #24]	; (800078c <HAL_SYSTICK_Config+0x28>)
 8000772:	6058      	str	r0, [r3, #4]
 8000774:	f882 1023 	strb.w	r1, [r2, #35]	; 0x23
 8000778:	2000      	movs	r0, #0
 800077a:	2207      	movs	r2, #7
 800077c:	6098      	str	r0, [r3, #8]
 800077e:	601a      	str	r2, [r3, #0]
 8000780:	4770      	bx	lr
 8000782:	2001      	movs	r0, #1
 8000784:	4770      	bx	lr
 8000786:	bf00      	nop
 8000788:	e000e010 	.word	0xe000e010
 800078c:	e000ed00 	.word	0xe000ed00

08000790 <HAL_DMA_Abort>:
 8000790:	f890 3021 	ldrb.w	r3, [r0, #33]	; 0x21
 8000794:	2b02      	cmp	r3, #2
 8000796:	d006      	beq.n	80007a6 <HAL_DMA_Abort+0x16>
 8000798:	2304      	movs	r3, #4
 800079a:	6383      	str	r3, [r0, #56]	; 0x38
 800079c:	2300      	movs	r3, #0
 800079e:	f880 3020 	strb.w	r3, [r0, #32]
 80007a2:	2001      	movs	r0, #1
 80007a4:	4770      	bx	lr
 80007a6:	6803      	ldr	r3, [r0, #0]
 80007a8:	6bc1      	ldr	r1, [r0, #60]	; 0x3c
 80007aa:	681a      	ldr	r2, [r3, #0]
 80007ac:	f022 020e 	bic.w	r2, r2, #14
 80007b0:	601a      	str	r2, [r3, #0]
 80007b2:	681a      	ldr	r2, [r3, #0]
 80007b4:	f022 0201 	bic.w	r2, r2, #1
 80007b8:	601a      	str	r2, [r3, #0]
 80007ba:	2201      	movs	r2, #1
 80007bc:	6c03      	ldr	r3, [r0, #64]	; 0x40
 80007be:	fa02 f303 	lsl.w	r3, r2, r3
 80007c2:	604b      	str	r3, [r1, #4]
 80007c4:	2300      	movs	r3, #0
 80007c6:	f880 2021 	strb.w	r2, [r0, #33]	; 0x21
 80007ca:	f880 3020 	strb.w	r3, [r0, #32]
 80007ce:	4618      	mov	r0, r3
 80007d0:	4770      	bx	lr
	...

080007d4 <HAL_DMA_Abort_IT>:
 80007d4:	b510      	push	{r4, lr}
 80007d6:	f890 3021 	ldrb.w	r3, [r0, #33]	; 0x21
 80007da:	2b02      	cmp	r3, #2
 80007dc:	d003      	beq.n	80007e6 <HAL_DMA_Abort_IT+0x12>
 80007de:	2304      	movs	r3, #4
 80007e0:	6383      	str	r3, [r0, #56]	; 0x38
 80007e2:	2001      	movs	r0, #1
 80007e4:	bd10      	pop	{r4, pc}
 80007e6:	6803      	ldr	r3, [r0, #0]
 80007e8:	681a      	ldr	r2, [r3, #0]
 80007ea:	f022 020e 	bic.w	r2, r2, #14
 80007ee:	601a      	str	r2, [r3, #0]
 80007f0:	681a      	ldr	r2, [r3, #0]
 80007f2:	f022 0201 	bic.w	r2, r2, #1
 80007f6:	601a      	str	r2, [r3, #0]
 80007f8:	4a18      	ldr	r2, [pc, #96]	; (800085c <HAL_DMA_Abort_IT+0x88>)
 80007fa:	4293      	cmp	r3, r2
 80007fc:	d01f      	beq.n	800083e <HAL_DMA_Abort_IT+0x6a>
 80007fe:	3214      	adds	r2, #20
 8000800:	4293      	cmp	r3, r2
 8000802:	d01e      	beq.n	8000842 <HAL_DMA_Abort_IT+0x6e>
 8000804:	3214      	adds	r2, #20
 8000806:	4293      	cmp	r3, r2
 8000808:	d01d      	beq.n	8000846 <HAL_DMA_Abort_IT+0x72>
 800080a:	3214      	adds	r2, #20
 800080c:	4293      	cmp	r3, r2
 800080e:	d01d      	beq.n	800084c <HAL_DMA_Abort_IT+0x78>
 8000810:	3214      	adds	r2, #20
 8000812:	4293      	cmp	r3, r2
 8000814:	d01d      	beq.n	8000852 <HAL_DMA_Abort_IT+0x7e>
 8000816:	3214      	adds	r2, #20
 8000818:	4293      	cmp	r3, r2
 800081a:	bf0c      	ite	eq
 800081c:	f44f 1380 	moveq.w	r3, #1048576	; 0x100000
 8000820:	f04f 7380 	movne.w	r3, #16777216	; 0x1000000
 8000824:	4a0e      	ldr	r2, [pc, #56]	; (8000860 <HAL_DMA_Abort_IT+0x8c>)
 8000826:	2400      	movs	r4, #0
 8000828:	6053      	str	r3, [r2, #4]
 800082a:	2301      	movs	r3, #1
 800082c:	f880 3021 	strb.w	r3, [r0, #33]	; 0x21
 8000830:	6b43      	ldr	r3, [r0, #52]	; 0x34
 8000832:	f880 4020 	strb.w	r4, [r0, #32]
 8000836:	b17b      	cbz	r3, 8000858 <HAL_DMA_Abort_IT+0x84>
 8000838:	4798      	blx	r3
 800083a:	4620      	mov	r0, r4
 800083c:	e7d2      	b.n	80007e4 <HAL_DMA_Abort_IT+0x10>
 800083e:	2301      	movs	r3, #1
 8000840:	e7f0      	b.n	8000824 <HAL_DMA_Abort_IT+0x50>
 8000842:	2310      	movs	r3, #16
 8000844:	e7ee      	b.n	8000824 <HAL_DMA_Abort_IT+0x50>
 8000846:	f44f 7380 	mov.w	r3, #256	; 0x100
 800084a:	e7eb      	b.n	8000824 <HAL_DMA_Abort_IT+0x50>
 800084c:	f44f 5380 	mov.w	r3, #4096	; 0x1000
 8000850:	e7e8      	b.n	8000824 <HAL_DMA_Abort_IT+0x50>
 8000852:	f44f 3380 	mov.w	r3, #65536	; 0x10000
 8000856:	e7e5      	b.n	8000824 <HAL_DMA_Abort_IT+0x50>
 8000858:	4618      	mov	r0, r3
 800085a:	e7c3      	b.n	80007e4 <HAL_DMA_Abort_IT+0x10>
 800085c:	40020008 	.word	0x40020008
 8000860:	40020000 	.word	0x40020000

08000864 <HAL_GPIO_Init>:
 8000864:	e92d 4ff7 	stmdb	sp!, {r0, r1, r2, r4, r5, r6, r7, r8, r9, sl, fp, lr}
 8000868:	2200      	movs	r2, #0
 800086a:	4616      	mov	r6, r2
 800086c:	4b60      	ldr	r3, [pc, #384]	; (80009f0 <HAL_GPIO_Init+0x18c>)
 800086e:	f8df c194 	ldr.w	ip, [pc, #404]	; 8000a04 <HAL_GPIO_Init+0x1a0>
 8000872:	f8df e194 	ldr.w	lr, [pc, #404]	; 8000a08 <HAL_GPIO_Init+0x1a4>
 8000876:	680d      	ldr	r5, [r1, #0]
 8000878:	fa35 f406 	lsrs.w	r4, r5, r6
 800087c:	d102      	bne.n	8000884 <HAL_GPIO_Init+0x20>
 800087e:	b003      	add	sp, #12
 8000880:	e8bd 8ff0 	ldmia.w	sp!, {r4, r5, r6, r7, r8, r9, sl, fp, pc}
 8000884:	f04f 0801 	mov.w	r8, #1
 8000888:	fa08 f806 	lsl.w	r8, r8, r6
 800088c:	ea05 0408 	and.w	r4, r5, r8
 8000890:	ea38 0505 	bics.w	r5, r8, r5
 8000894:	d178      	bne.n	8000988 <HAL_GPIO_Init+0x124>
 8000896:	684d      	ldr	r5, [r1, #4]
 8000898:	2d03      	cmp	r5, #3
 800089a:	d807      	bhi.n	80008ac <HAL_GPIO_Init+0x48>
 800089c:	3d01      	subs	r5, #1
 800089e:	2d02      	cmp	r5, #2
 80008a0:	f200 8082 	bhi.w	80009a8 <HAL_GPIO_Init+0x144>
 80008a4:	e8df f005 	tbb	[pc, r5]
 80008a8:	9691      	.short	0x9691
 80008aa:	9c          	.byte	0x9c
 80008ab:	00          	.byte	0x00
 80008ac:	2d12      	cmp	r5, #18
 80008ae:	f000 8094 	beq.w	80009da <HAL_GPIO_Init+0x176>
 80008b2:	d86b      	bhi.n	800098c <HAL_GPIO_Init+0x128>
 80008b4:	2d11      	cmp	r5, #17
 80008b6:	f000 808a 	beq.w	80009ce <HAL_GPIO_Init+0x16a>
 80008ba:	2cff      	cmp	r4, #255	; 0xff
 80008bc:	bf98      	it	ls
 80008be:	4682      	movls	sl, r0
 80008c0:	f04f 090f 	mov.w	r9, #15
 80008c4:	bf88      	it	hi
 80008c6:	f100 0a04 	addhi.w	sl, r0, #4
 80008ca:	ea4f 0586 	mov.w	r5, r6, lsl #2
 80008ce:	f8da 8000 	ldr.w	r8, [sl]
 80008d2:	bf88      	it	hi
 80008d4:	3d20      	subhi	r5, #32
 80008d6:	fa09 fb05 	lsl.w	fp, r9, r5
 80008da:	ea28 080b 	bic.w	r8, r8, fp
 80008de:	fa02 f505 	lsl.w	r5, r2, r5
 80008e2:	ea48 0505 	orr.w	r5, r8, r5
 80008e6:	f8ca 5000 	str.w	r5, [sl]
 80008ea:	f8d1 a004 	ldr.w	sl, [r1, #4]
 80008ee:	f01a 5f80 	tst.w	sl, #268435456	; 0x10000000
 80008f2:	d049      	beq.n	8000988 <HAL_GPIO_Init+0x124>
 80008f4:	4f3f      	ldr	r7, [pc, #252]	; (80009f4 <HAL_GPIO_Init+0x190>)
 80008f6:	f026 0803 	bic.w	r8, r6, #3
 80008fa:	69bd      	ldr	r5, [r7, #24]
 80008fc:	f108 4880 	add.w	r8, r8, #1073741824	; 0x40000000
 8000900:	f045 0501 	orr.w	r5, r5, #1
 8000904:	61bd      	str	r5, [r7, #24]
 8000906:	69bd      	ldr	r5, [r7, #24]
 8000908:	f508 3880 	add.w	r8, r8, #65536	; 0x10000
 800090c:	f005 0501 	and.w	r5, r5, #1
 8000910:	9501      	str	r5, [sp, #4]
 8000912:	f006 0b03 	and.w	fp, r6, #3
 8000916:	9d01      	ldr	r5, [sp, #4]
 8000918:	ea4f 0b8b 	mov.w	fp, fp, lsl #2
 800091c:	f8d8 5008 	ldr.w	r5, [r8, #8]
 8000920:	fa09 f90b 	lsl.w	r9, r9, fp
 8000924:	ea25 0909 	bic.w	r9, r5, r9
 8000928:	4d33      	ldr	r5, [pc, #204]	; (80009f8 <HAL_GPIO_Init+0x194>)
 800092a:	42a8      	cmp	r0, r5
 800092c:	d05c      	beq.n	80009e8 <HAL_GPIO_Init+0x184>
 800092e:	f505 6580 	add.w	r5, r5, #1024	; 0x400
 8000932:	42a8      	cmp	r0, r5
 8000934:	d05a      	beq.n	80009ec <HAL_GPIO_Init+0x188>
 8000936:	f505 6580 	add.w	r5, r5, #1024	; 0x400
 800093a:	42a8      	cmp	r0, r5
 800093c:	bf0c      	ite	eq
 800093e:	2502      	moveq	r5, #2
 8000940:	2503      	movne	r5, #3
 8000942:	fa05 f50b 	lsl.w	r5, r5, fp
 8000946:	ea45 0509 	orr.w	r5, r5, r9
 800094a:	f8c8 5008 	str.w	r5, [r8, #8]
 800094e:	689d      	ldr	r5, [r3, #8]
 8000950:	f41a 1f80 	tst.w	sl, #1048576	; 0x100000
 8000954:	bf14      	ite	ne
 8000956:	4325      	orrne	r5, r4
 8000958:	43a5      	biceq	r5, r4
 800095a:	609d      	str	r5, [r3, #8]
 800095c:	68dd      	ldr	r5, [r3, #12]
 800095e:	f41a 1f00 	tst.w	sl, #2097152	; 0x200000
 8000962:	bf14      	ite	ne
 8000964:	4325      	orrne	r5, r4
 8000966:	43a5      	biceq	r5, r4
 8000968:	60dd      	str	r5, [r3, #12]
 800096a:	685d      	ldr	r5, [r3, #4]
 800096c:	f41a 3f00 	tst.w	sl, #131072	; 0x20000
 8000970:	bf14      	ite	ne
 8000972:	4325      	orrne	r5, r4
 8000974:	43a5      	biceq	r5, r4
 8000976:	605d      	str	r5, [r3, #4]
 8000978:	681d      	ldr	r5, [r3, #0]
 800097a:	f41a 3f80 	tst.w	sl, #65536	; 0x10000
 800097e:	bf14      	ite	ne
 8000980:	432c      	orrne	r4, r5
 8000982:	ea25 0404 	biceq.w	r4, r5, r4
 8000986:	601c      	str	r4, [r3, #0]
 8000988:	3601      	adds	r6, #1
 800098a:	e774      	b.n	8000876 <HAL_GPIO_Init+0x12>
 800098c:	4f1b      	ldr	r7, [pc, #108]	; (80009fc <HAL_GPIO_Init+0x198>)
 800098e:	42bd      	cmp	r5, r7
 8000990:	d00a      	beq.n	80009a8 <HAL_GPIO_Init+0x144>
 8000992:	d815      	bhi.n	80009c0 <HAL_GPIO_Init+0x15c>
 8000994:	4575      	cmp	r5, lr
 8000996:	d007      	beq.n	80009a8 <HAL_GPIO_Init+0x144>
 8000998:	f8df 9070 	ldr.w	r9, [pc, #112]	; 8000a0c <HAL_GPIO_Init+0x1a8>
 800099c:	454d      	cmp	r5, r9
 800099e:	d003      	beq.n	80009a8 <HAL_GPIO_Init+0x144>
 80009a0:	f5a9 1980 	sub.w	r9, r9, #1048576	; 0x100000
 80009a4:	454d      	cmp	r5, r9
 80009a6:	d188      	bne.n	80008ba <HAL_GPIO_Init+0x56>
 80009a8:	688a      	ldr	r2, [r1, #8]
 80009aa:	b1da      	cbz	r2, 80009e4 <HAL_GPIO_Init+0x180>
 80009ac:	2a01      	cmp	r2, #1
 80009ae:	bf08      	it	eq
 80009b0:	f8c0 8010 	streq.w	r8, [r0, #16]
 80009b4:	f04f 0208 	mov.w	r2, #8
 80009b8:	bf18      	it	ne
 80009ba:	f8c0 8014 	strne.w	r8, [r0, #20]
 80009be:	e77c      	b.n	80008ba <HAL_GPIO_Init+0x56>
 80009c0:	4f0f      	ldr	r7, [pc, #60]	; (8000a00 <HAL_GPIO_Init+0x19c>)
 80009c2:	42bd      	cmp	r5, r7
 80009c4:	d0f0      	beq.n	80009a8 <HAL_GPIO_Init+0x144>
 80009c6:	4565      	cmp	r5, ip
 80009c8:	e7ed      	b.n	80009a6 <HAL_GPIO_Init+0x142>
 80009ca:	68ca      	ldr	r2, [r1, #12]
 80009cc:	e775      	b.n	80008ba <HAL_GPIO_Init+0x56>
 80009ce:	68ca      	ldr	r2, [r1, #12]
 80009d0:	3204      	adds	r2, #4
 80009d2:	e772      	b.n	80008ba <HAL_GPIO_Init+0x56>
 80009d4:	68ca      	ldr	r2, [r1, #12]
 80009d6:	3208      	adds	r2, #8
 80009d8:	e76f      	b.n	80008ba <HAL_GPIO_Init+0x56>
 80009da:	68ca      	ldr	r2, [r1, #12]
 80009dc:	320c      	adds	r2, #12
 80009de:	e76c      	b.n	80008ba <HAL_GPIO_Init+0x56>
 80009e0:	2200      	movs	r2, #0
 80009e2:	e76a      	b.n	80008ba <HAL_GPIO_Init+0x56>
 80009e4:	2204      	movs	r2, #4
 80009e6:	e768      	b.n	80008ba <HAL_GPIO_Init+0x56>
 80009e8:	2500      	movs	r5, #0
 80009ea:	e7aa      	b.n	8000942 <HAL_GPIO_Init+0xde>
 80009ec:	2501      	movs	r5, #1
 80009ee:	e7a8      	b.n	8000942 <HAL_GPIO_Init+0xde>
 80009f0:	40010400 	.word	0x40010400
 80009f4:	40021000 	.word	0x40021000
 80009f8:	40010800 	.word	0x40010800
 80009fc:	10220000 	.word	0x10220000
 8000a00:	10310000 	.word	0x10310000
 8000a04:	10320000 	.word	0x10320000
 8000a08:	10120000 	.word	0x10120000
 8000a0c:	10210000 	.word	0x10210000

08000a10 <HAL_GPIO_WritePin>:
 8000a10:	b10a      	cbz	r2, 8000a16 <HAL_GPIO_WritePin+0x6>
 8000a12:	6101      	str	r1, [r0, #16]
 8000a14:	4770      	bx	lr
 8000a16:	0409      	lsls	r1, r1, #16
 8000a18:	e7fb      	b.n	8000a12 <HAL_GPIO_WritePin+0x2>

08000a1a <HAL_GPIO_TogglePin>:
 8000a1a:	68c3      	ldr	r3, [r0, #12]
 8000a1c:	ea01 0203 	and.w	r2, r1, r3
 8000a20:	ea21 0103 	bic.w	r1, r1, r3
 8000a24:	ea41 4102 	orr.w	r1, r1, r2, lsl #16
 8000a28:	6101      	str	r1, [r0, #16]
 8000a2a:	4770      	bx	lr

08000a2c <HAL_RCC_OscConfig>:
 8000a2c:	e92d 41f3 	stmdb	sp!, {r0, r1, r4, r5, r6, r7, r8, lr}
 8000a30:	4605      	mov	r5, r0
 8000a32:	b338      	cbz	r0, 8000a84 <HAL_RCC_OscConfig+0x58>
 8000a34:	6803      	ldr	r3, [r0, #0]
 8000a36:	07db      	lsls	r3, r3, #31
 8000a38:	d410      	bmi.n	8000a5c <HAL_RCC_OscConfig+0x30>
 8000a3a:	682b      	ldr	r3, [r5, #0]
 8000a3c:	079f      	lsls	r7, r3, #30
 8000a3e:	d45e      	bmi.n	8000afe <HAL_RCC_OscConfig+0xd2>
 8000a40:	682b      	ldr	r3, [r5, #0]
 8000a42:	0719      	lsls	r1, r3, #28
 8000a44:	f100 8095 	bmi.w	8000b72 <HAL_RCC_OscConfig+0x146>
 8000a48:	682b      	ldr	r3, [r5, #0]
 8000a4a:	075a      	lsls	r2, r3, #29
 8000a4c:	f100 80bf 	bmi.w	8000bce <HAL_RCC_OscConfig+0x1a2>
 8000a50:	69e8      	ldr	r0, [r5, #28]
 8000a52:	2800      	cmp	r0, #0
 8000a54:	f040 812c 	bne.w	8000cb0 <HAL_RCC_OscConfig+0x284>
 8000a58:	2000      	movs	r0, #0
 8000a5a:	e029      	b.n	8000ab0 <HAL_RCC_OscConfig+0x84>
 8000a5c:	4c8f      	ldr	r4, [pc, #572]	; (8000c9c <HAL_RCC_OscConfig+0x270>)
 8000a5e:	6863      	ldr	r3, [r4, #4]
 8000a60:	f003 030c 	and.w	r3, r3, #12
 8000a64:	2b04      	cmp	r3, #4
 8000a66:	d007      	beq.n	8000a78 <HAL_RCC_OscConfig+0x4c>
 8000a68:	6863      	ldr	r3, [r4, #4]
 8000a6a:	f003 030c 	and.w	r3, r3, #12
 8000a6e:	2b08      	cmp	r3, #8
 8000a70:	d10a      	bne.n	8000a88 <HAL_RCC_OscConfig+0x5c>
 8000a72:	6863      	ldr	r3, [r4, #4]
 8000a74:	03de      	lsls	r6, r3, #15
 8000a76:	d507      	bpl.n	8000a88 <HAL_RCC_OscConfig+0x5c>
 8000a78:	6823      	ldr	r3, [r4, #0]
 8000a7a:	039c      	lsls	r4, r3, #14
 8000a7c:	d5dd      	bpl.n	8000a3a <HAL_RCC_OscConfig+0xe>
 8000a7e:	686b      	ldr	r3, [r5, #4]
 8000a80:	2b00      	cmp	r3, #0
 8000a82:	d1da      	bne.n	8000a3a <HAL_RCC_OscConfig+0xe>
 8000a84:	2001      	movs	r0, #1
 8000a86:	e013      	b.n	8000ab0 <HAL_RCC_OscConfig+0x84>
 8000a88:	686b      	ldr	r3, [r5, #4]
 8000a8a:	f5b3 3f80 	cmp.w	r3, #65536	; 0x10000
 8000a8e:	d112      	bne.n	8000ab6 <HAL_RCC_OscConfig+0x8a>
 8000a90:	6823      	ldr	r3, [r4, #0]
 8000a92:	f443 3380 	orr.w	r3, r3, #65536	; 0x10000
 8000a96:	6023      	str	r3, [r4, #0]
 8000a98:	f7ff fe0c 	bl	80006b4 <HAL_GetTick>
 8000a9c:	4606      	mov	r6, r0
 8000a9e:	6823      	ldr	r3, [r4, #0]
 8000aa0:	0398      	lsls	r0, r3, #14
 8000aa2:	d4ca      	bmi.n	8000a3a <HAL_RCC_OscConfig+0xe>
 8000aa4:	f7ff fe06 	bl	80006b4 <HAL_GetTick>
 8000aa8:	1b80      	subs	r0, r0, r6
 8000aaa:	2864      	cmp	r0, #100	; 0x64
 8000aac:	d9f7      	bls.n	8000a9e <HAL_RCC_OscConfig+0x72>
 8000aae:	2003      	movs	r0, #3
 8000ab0:	b002      	add	sp, #8
 8000ab2:	e8bd 81f0 	ldmia.w	sp!, {r4, r5, r6, r7, r8, pc}
 8000ab6:	b99b      	cbnz	r3, 8000ae0 <HAL_RCC_OscConfig+0xb4>
 8000ab8:	6823      	ldr	r3, [r4, #0]
 8000aba:	f423 3380 	bic.w	r3, r3, #65536	; 0x10000
 8000abe:	6023      	str	r3, [r4, #0]
 8000ac0:	6823      	ldr	r3, [r4, #0]
 8000ac2:	f423 2380 	bic.w	r3, r3, #262144	; 0x40000
 8000ac6:	6023      	str	r3, [r4, #0]
 8000ac8:	f7ff fdf4 	bl	80006b4 <HAL_GetTick>
 8000acc:	4606      	mov	r6, r0
 8000ace:	6823      	ldr	r3, [r4, #0]
 8000ad0:	0399      	lsls	r1, r3, #14
 8000ad2:	d5b2      	bpl.n	8000a3a <HAL_RCC_OscConfig+0xe>
 8000ad4:	f7ff fdee 	bl	80006b4 <HAL_GetTick>
 8000ad8:	1b80      	subs	r0, r0, r6
 8000ada:	2864      	cmp	r0, #100	; 0x64
 8000adc:	d9f7      	bls.n	8000ace <HAL_RCC_OscConfig+0xa2>
 8000ade:	e7e6      	b.n	8000aae <HAL_RCC_OscConfig+0x82>
 8000ae0:	f5b3 2fa0 	cmp.w	r3, #327680	; 0x50000
 8000ae4:	6823      	ldr	r3, [r4, #0]
 8000ae6:	d103      	bne.n	8000af0 <HAL_RCC_OscConfig+0xc4>
 8000ae8:	f443 2380 	orr.w	r3, r3, #262144	; 0x40000
 8000aec:	6023      	str	r3, [r4, #0]
 8000aee:	e7cf      	b.n	8000a90 <HAL_RCC_OscConfig+0x64>
 8000af0:	f423 3380 	bic.w	r3, r3, #65536	; 0x10000
 8000af4:	6023      	str	r3, [r4, #0]
 8000af6:	6823      	ldr	r3, [r4, #0]
 8000af8:	f423 2380 	bic.w	r3, r3, #262144	; 0x40000
 8000afc:	e7cb      	b.n	8000a96 <HAL_RCC_OscConfig+0x6a>
 8000afe:	4c67      	ldr	r4, [pc, #412]	; (8000c9c <HAL_RCC_OscConfig+0x270>)
 8000b00:	6863      	ldr	r3, [r4, #4]
 8000b02:	f013 0f0c 	tst.w	r3, #12
 8000b06:	d007      	beq.n	8000b18 <HAL_RCC_OscConfig+0xec>
 8000b08:	6863      	ldr	r3, [r4, #4]
 8000b0a:	f003 030c 	and.w	r3, r3, #12
 8000b0e:	2b08      	cmp	r3, #8
 8000b10:	d110      	bne.n	8000b34 <HAL_RCC_OscConfig+0x108>
 8000b12:	6863      	ldr	r3, [r4, #4]
 8000b14:	03da      	lsls	r2, r3, #15
 8000b16:	d40d      	bmi.n	8000b34 <HAL_RCC_OscConfig+0x108>
 8000b18:	6823      	ldr	r3, [r4, #0]
 8000b1a:	079b      	lsls	r3, r3, #30
 8000b1c:	d502      	bpl.n	8000b24 <HAL_RCC_OscConfig+0xf8>
 8000b1e:	692b      	ldr	r3, [r5, #16]
 8000b20:	2b01      	cmp	r3, #1
 8000b22:	d1af      	bne.n	8000a84 <HAL_RCC_OscConfig+0x58>
 8000b24:	6823      	ldr	r3, [r4, #0]
 8000b26:	696a      	ldr	r2, [r5, #20]
 8000b28:	f023 03f8 	bic.w	r3, r3, #248	; 0xf8
 8000b2c:	ea43 03c2 	orr.w	r3, r3, r2, lsl #3
 8000b30:	6023      	str	r3, [r4, #0]
 8000b32:	e785      	b.n	8000a40 <HAL_RCC_OscConfig+0x14>
 8000b34:	692a      	ldr	r2, [r5, #16]
 8000b36:	4b5a      	ldr	r3, [pc, #360]	; (8000ca0 <HAL_RCC_OscConfig+0x274>)
 8000b38:	b16a      	cbz	r2, 8000b56 <HAL_RCC_OscConfig+0x12a>
 8000b3a:	2201      	movs	r2, #1
 8000b3c:	601a      	str	r2, [r3, #0]
 8000b3e:	f7ff fdb9 	bl	80006b4 <HAL_GetTick>
 8000b42:	4606      	mov	r6, r0
 8000b44:	6823      	ldr	r3, [r4, #0]
 8000b46:	079f      	lsls	r7, r3, #30
 8000b48:	d4ec      	bmi.n	8000b24 <HAL_RCC_OscConfig+0xf8>
 8000b4a:	f7ff fdb3 	bl	80006b4 <HAL_GetTick>
 8000b4e:	1b80      	subs	r0, r0, r6
 8000b50:	2802      	cmp	r0, #2
 8000b52:	d9f7      	bls.n	8000b44 <HAL_RCC_OscConfig+0x118>
 8000b54:	e7ab      	b.n	8000aae <HAL_RCC_OscConfig+0x82>
 8000b56:	601a      	str	r2, [r3, #0]
 8000b58:	f7ff fdac 	bl	80006b4 <HAL_GetTick>
 8000b5c:	4606      	mov	r6, r0
 8000b5e:	6823      	ldr	r3, [r4, #0]
 8000b60:	0798      	lsls	r0, r3, #30
 8000b62:	f57f af6d 	bpl.w	8000a40 <HAL_RCC_OscConfig+0x14>
 8000b66:	f7ff fda5 	bl	80006b4 <HAL_GetTick>
 8000b6a:	1b80      	subs	r0, r0, r6
 8000b6c:	2802      	cmp	r0, #2
 8000b6e:	d9f6      	bls.n	8000b5e <HAL_RCC_OscConfig+0x132>
 8000b70:	e79d      	b.n	8000aae <HAL_RCC_OscConfig+0x82>
 8000b72:	69aa      	ldr	r2, [r5, #24]
 8000b74:	4e49      	ldr	r6, [pc, #292]	; (8000c9c <HAL_RCC_OscConfig+0x270>)
 8000b76:	4b4b      	ldr	r3, [pc, #300]	; (8000ca4 <HAL_RCC_OscConfig+0x278>)
 8000b78:	b1da      	cbz	r2, 8000bb2 <HAL_RCC_OscConfig+0x186>
 8000b7a:	2201      	movs	r2, #1
 8000b7c:	601a      	str	r2, [r3, #0]
 8000b7e:	f7ff fd99 	bl	80006b4 <HAL_GetTick>
 8000b82:	4604      	mov	r4, r0
 8000b84:	6a73      	ldr	r3, [r6, #36]	; 0x24
 8000b86:	079b      	lsls	r3, r3, #30
 8000b88:	d50d      	bpl.n	8000ba6 <HAL_RCC_OscConfig+0x17a>
 8000b8a:	f44f 52fa 	mov.w	r2, #8000	; 0x1f40
 8000b8e:	4b46      	ldr	r3, [pc, #280]	; (8000ca8 <HAL_RCC_OscConfig+0x27c>)
 8000b90:	681b      	ldr	r3, [r3, #0]
 8000b92:	fbb3 f3f2 	udiv	r3, r3, r2
 8000b96:	9301      	str	r3, [sp, #4]
 8000b98:	bf00      	nop
 8000b9a:	9b01      	ldr	r3, [sp, #4]
 8000b9c:	1e5a      	subs	r2, r3, #1
 8000b9e:	9201      	str	r2, [sp, #4]
 8000ba0:	2b00      	cmp	r3, #0
 8000ba2:	d1f9      	bne.n	8000b98 <HAL_RCC_OscConfig+0x16c>
 8000ba4:	e750      	b.n	8000a48 <HAL_RCC_OscConfig+0x1c>
 8000ba6:	f7ff fd85 	bl	80006b4 <HAL_GetTick>
 8000baa:	1b00      	subs	r0, r0, r4
 8000bac:	2802      	cmp	r0, #2
 8000bae:	d9e9      	bls.n	8000b84 <HAL_RCC_OscConfig+0x158>
 8000bb0:	e77d      	b.n	8000aae <HAL_RCC_OscConfig+0x82>
 8000bb2:	601a      	str	r2, [r3, #0]
 8000bb4:	f7ff fd7e 	bl	80006b4 <HAL_GetTick>
 8000bb8:	4604      	mov	r4, r0
 8000bba:	6a73      	ldr	r3, [r6, #36]	; 0x24
 8000bbc:	079f      	lsls	r7, r3, #30
 8000bbe:	f57f af43 	bpl.w	8000a48 <HAL_RCC_OscConfig+0x1c>
 8000bc2:	f7ff fd77 	bl	80006b4 <HAL_GetTick>
 8000bc6:	1b00      	subs	r0, r0, r4
 8000bc8:	2802      	cmp	r0, #2
 8000bca:	d9f6      	bls.n	8000bba <HAL_RCC_OscConfig+0x18e>
 8000bcc:	e76f      	b.n	8000aae <HAL_RCC_OscConfig+0x82>
 8000bce:	4c33      	ldr	r4, [pc, #204]	; (8000c9c <HAL_RCC_OscConfig+0x270>)
 8000bd0:	69e3      	ldr	r3, [r4, #28]
 8000bd2:	00d8      	lsls	r0, r3, #3
 8000bd4:	d424      	bmi.n	8000c20 <HAL_RCC_OscConfig+0x1f4>
 8000bd6:	2701      	movs	r7, #1
 8000bd8:	69e3      	ldr	r3, [r4, #28]
 8000bda:	f043 5380 	orr.w	r3, r3, #268435456	; 0x10000000
 8000bde:	61e3      	str	r3, [r4, #28]
 8000be0:	69e3      	ldr	r3, [r4, #28]
 8000be2:	f003 5380 	and.w	r3, r3, #268435456	; 0x10000000
 8000be6:	9300      	str	r3, [sp, #0]
 8000be8:	9b00      	ldr	r3, [sp, #0]
 8000bea:	4e30      	ldr	r6, [pc, #192]	; (8000cac <HAL_RCC_OscConfig+0x280>)
 8000bec:	6833      	ldr	r3, [r6, #0]
 8000bee:	05d9      	lsls	r1, r3, #23
 8000bf0:	d518      	bpl.n	8000c24 <HAL_RCC_OscConfig+0x1f8>
 8000bf2:	68eb      	ldr	r3, [r5, #12]
 8000bf4:	2b01      	cmp	r3, #1
 8000bf6:	d126      	bne.n	8000c46 <HAL_RCC_OscConfig+0x21a>
 8000bf8:	6a23      	ldr	r3, [r4, #32]
 8000bfa:	f043 0301 	orr.w	r3, r3, #1
 8000bfe:	6223      	str	r3, [r4, #32]
 8000c00:	f7ff fd58 	bl	80006b4 <HAL_GetTick>
 8000c04:	f241 3888 	movw	r8, #5000	; 0x1388
 8000c08:	4606      	mov	r6, r0
 8000c0a:	6a23      	ldr	r3, [r4, #32]
 8000c0c:	079b      	lsls	r3, r3, #30
 8000c0e:	d53f      	bpl.n	8000c90 <HAL_RCC_OscConfig+0x264>
 8000c10:	2f00      	cmp	r7, #0
 8000c12:	f43f af1d 	beq.w	8000a50 <HAL_RCC_OscConfig+0x24>
 8000c16:	69e3      	ldr	r3, [r4, #28]
 8000c18:	f023 5380 	bic.w	r3, r3, #268435456	; 0x10000000
 8000c1c:	61e3      	str	r3, [r4, #28]
 8000c1e:	e717      	b.n	8000a50 <HAL_RCC_OscConfig+0x24>
 8000c20:	2700      	movs	r7, #0
 8000c22:	e7e2      	b.n	8000bea <HAL_RCC_OscConfig+0x1be>
 8000c24:	6833      	ldr	r3, [r6, #0]
 8000c26:	f443 7380 	orr.w	r3, r3, #256	; 0x100
 8000c2a:	6033      	str	r3, [r6, #0]
 8000c2c:	f7ff fd42 	bl	80006b4 <HAL_GetTick>
 8000c30:	4680      	mov	r8, r0
 8000c32:	6833      	ldr	r3, [r6, #0]
 8000c34:	05da      	lsls	r2, r3, #23
 8000c36:	d4dc      	bmi.n	8000bf2 <HAL_RCC_OscConfig+0x1c6>
 8000c38:	f7ff fd3c 	bl	80006b4 <HAL_GetTick>
 8000c3c:	eba0 0008 	sub.w	r0, r0, r8
 8000c40:	2864      	cmp	r0, #100	; 0x64
 8000c42:	d9f6      	bls.n	8000c32 <HAL_RCC_OscConfig+0x206>
 8000c44:	e733      	b.n	8000aae <HAL_RCC_OscConfig+0x82>
 8000c46:	b9ab      	cbnz	r3, 8000c74 <HAL_RCC_OscConfig+0x248>
 8000c48:	6a23      	ldr	r3, [r4, #32]
 8000c4a:	f241 3888 	movw	r8, #5000	; 0x1388
 8000c4e:	f023 0301 	bic.w	r3, r3, #1
 8000c52:	6223      	str	r3, [r4, #32]
 8000c54:	6a23      	ldr	r3, [r4, #32]
 8000c56:	f023 0304 	bic.w	r3, r3, #4
 8000c5a:	6223      	str	r3, [r4, #32]
 8000c5c:	f7ff fd2a 	bl	80006b4 <HAL_GetTick>
 8000c60:	4606      	mov	r6, r0
 8000c62:	6a23      	ldr	r3, [r4, #32]
 8000c64:	0798      	lsls	r0, r3, #30
 8000c66:	d5d3      	bpl.n	8000c10 <HAL_RCC_OscConfig+0x1e4>
 8000c68:	f7ff fd24 	bl	80006b4 <HAL_GetTick>
 8000c6c:	1b80      	subs	r0, r0, r6
 8000c6e:	4540      	cmp	r0, r8
 8000c70:	d9f7      	bls.n	8000c62 <HAL_RCC_OscConfig+0x236>
 8000c72:	e71c      	b.n	8000aae <HAL_RCC_OscConfig+0x82>
 8000c74:	2b05      	cmp	r3, #5
 8000c76:	6a23      	ldr	r3, [r4, #32]
 8000c78:	d103      	bne.n	8000c82 <HAL_RCC_OscConfig+0x256>
 8000c7a:	f043 0304 	orr.w	r3, r3, #4
 8000c7e:	6223      	str	r3, [r4, #32]
 8000c80:	e7ba      	b.n	8000bf8 <HAL_RCC_OscConfig+0x1cc>
 8000c82:	f023 0301 	bic.w	r3, r3, #1
 8000c86:	6223      	str	r3, [r4, #32]
 8000c88:	6a23      	ldr	r3, [r4, #32]
 8000c8a:	f023 0304 	bic.w	r3, r3, #4
 8000c8e:	e7b6      	b.n	8000bfe <HAL_RCC_OscConfig+0x1d2>
 8000c90:	f7ff fd10 	bl	80006b4 <HAL_GetTick>
 8000c94:	1b80      	subs	r0, r0, r6
 8000c96:	4540      	cmp	r0, r8
 8000c98:	d9b7      	bls.n	8000c0a <HAL_RCC_OscConfig+0x1de>
 8000c9a:	e708      	b.n	8000aae <HAL_RCC_OscConfig+0x82>
 8000c9c:	40021000 	.word	0x40021000
 8000ca0:	42420000 	.word	0x42420000
 8000ca4:	42420480 	.word	0x42420480
 8000ca8:	20000000 	.word	0x20000000
 8000cac:	40007000 	.word	0x40007000
 8000cb0:	4b2a      	ldr	r3, [pc, #168]	; (8000d5c <HAL_RCC_OscConfig+0x330>)
 8000cb2:	685a      	ldr	r2, [r3, #4]
 8000cb4:	461c      	mov	r4, r3
 8000cb6:	f002 020c 	and.w	r2, r2, #12
 8000cba:	2a08      	cmp	r2, #8
 8000cbc:	d03d      	beq.n	8000d3a <HAL_RCC_OscConfig+0x30e>
 8000cbe:	2300      	movs	r3, #0
 8000cc0:	4e27      	ldr	r6, [pc, #156]	; (8000d60 <HAL_RCC_OscConfig+0x334>)
 8000cc2:	2802      	cmp	r0, #2
 8000cc4:	6033      	str	r3, [r6, #0]
 8000cc6:	d12b      	bne.n	8000d20 <HAL_RCC_OscConfig+0x2f4>
 8000cc8:	f7ff fcf4 	bl	80006b4 <HAL_GetTick>
 8000ccc:	4607      	mov	r7, r0
 8000cce:	6823      	ldr	r3, [r4, #0]
 8000cd0:	0199      	lsls	r1, r3, #6
 8000cd2:	d41f      	bmi.n	8000d14 <HAL_RCC_OscConfig+0x2e8>
 8000cd4:	6a2b      	ldr	r3, [r5, #32]
 8000cd6:	f5b3 3f80 	cmp.w	r3, #65536	; 0x10000
 8000cda:	d105      	bne.n	8000ce8 <HAL_RCC_OscConfig+0x2bc>
 8000cdc:	6862      	ldr	r2, [r4, #4]
 8000cde:	68a9      	ldr	r1, [r5, #8]
 8000ce0:	f422 3200 	bic.w	r2, r2, #131072	; 0x20000
 8000ce4:	430a      	orrs	r2, r1
 8000ce6:	6062      	str	r2, [r4, #4]
 8000ce8:	6a69      	ldr	r1, [r5, #36]	; 0x24
 8000cea:	6862      	ldr	r2, [r4, #4]
 8000cec:	430b      	orrs	r3, r1
 8000cee:	f422 1274 	bic.w	r2, r2, #3997696	; 0x3d0000
 8000cf2:	4313      	orrs	r3, r2
 8000cf4:	6063      	str	r3, [r4, #4]
 8000cf6:	2301      	movs	r3, #1
 8000cf8:	6033      	str	r3, [r6, #0]
 8000cfa:	f7ff fcdb 	bl	80006b4 <HAL_GetTick>
 8000cfe:	4605      	mov	r5, r0
 8000d00:	6823      	ldr	r3, [r4, #0]
 8000d02:	019a      	lsls	r2, r3, #6
 8000d04:	f53f aea8 	bmi.w	8000a58 <HAL_RCC_OscConfig+0x2c>
 8000d08:	f7ff fcd4 	bl	80006b4 <HAL_GetTick>
 8000d0c:	1b40      	subs	r0, r0, r5
 8000d0e:	2802      	cmp	r0, #2
 8000d10:	d9f6      	bls.n	8000d00 <HAL_RCC_OscConfig+0x2d4>
 8000d12:	e6cc      	b.n	8000aae <HAL_RCC_OscConfig+0x82>
 8000d14:	f7ff fcce 	bl	80006b4 <HAL_GetTick>
 8000d18:	1bc0      	subs	r0, r0, r7
 8000d1a:	2802      	cmp	r0, #2
 8000d1c:	d9d7      	bls.n	8000cce <HAL_RCC_OscConfig+0x2a2>
 8000d1e:	e6c6      	b.n	8000aae <HAL_RCC_OscConfig+0x82>
 8000d20:	f7ff fcc8 	bl	80006b4 <HAL_GetTick>
 8000d24:	4605      	mov	r5, r0
 8000d26:	6823      	ldr	r3, [r4, #0]
 8000d28:	019b      	lsls	r3, r3, #6
 8000d2a:	f57f ae95 	bpl.w	8000a58 <HAL_RCC_OscConfig+0x2c>
 8000d2e:	f7ff fcc1 	bl	80006b4 <HAL_GetTick>
 8000d32:	1b40      	subs	r0, r0, r5
 8000d34:	2802      	cmp	r0, #2
 8000d36:	d9f6      	bls.n	8000d26 <HAL_RCC_OscConfig+0x2fa>
 8000d38:	e6b9      	b.n	8000aae <HAL_RCC_OscConfig+0x82>
 8000d3a:	2801      	cmp	r0, #1
 8000d3c:	f43f aeb8 	beq.w	8000ab0 <HAL_RCC_OscConfig+0x84>
 8000d40:	685b      	ldr	r3, [r3, #4]
 8000d42:	6a2a      	ldr	r2, [r5, #32]
 8000d44:	f403 3180 	and.w	r1, r3, #65536	; 0x10000
 8000d48:	4291      	cmp	r1, r2
 8000d4a:	f47f ae9b 	bne.w	8000a84 <HAL_RCC_OscConfig+0x58>
 8000d4e:	6a6a      	ldr	r2, [r5, #36]	; 0x24
 8000d50:	f403 1370 	and.w	r3, r3, #3932160	; 0x3c0000
 8000d54:	4293      	cmp	r3, r2
 8000d56:	f43f ae7f 	beq.w	8000a58 <HAL_RCC_OscConfig+0x2c>
 8000d5a:	e693      	b.n	8000a84 <HAL_RCC_OscConfig+0x58>
 8000d5c:	40021000 	.word	0x40021000
 8000d60:	42420060 	.word	0x42420060

08000d64 <HAL_RCC_GetSysClockFreq>:
 8000d64:	490d      	ldr	r1, [pc, #52]	; (8000d9c <HAL_RCC_GetSysClockFreq+0x38>)
 8000d66:	684b      	ldr	r3, [r1, #4]
 8000d68:	f003 020c 	and.w	r2, r3, #12
 8000d6c:	2a08      	cmp	r2, #8
 8000d6e:	d112      	bne.n	8000d96 <HAL_RCC_GetSysClockFreq+0x32>
 8000d70:	480b      	ldr	r0, [pc, #44]	; (8000da0 <HAL_RCC_GetSysClockFreq+0x3c>)
 8000d72:	f3c3 4283 	ubfx	r2, r3, #18, #4
 8000d76:	03db      	lsls	r3, r3, #15
 8000d78:	5c82      	ldrb	r2, [r0, r2]
 8000d7a:	d509      	bpl.n	8000d90 <HAL_RCC_GetSysClockFreq+0x2c>
 8000d7c:	4809      	ldr	r0, [pc, #36]	; (8000da4 <HAL_RCC_GetSysClockFreq+0x40>)
 8000d7e:	684b      	ldr	r3, [r1, #4]
 8000d80:	4350      	muls	r0, r2
 8000d82:	4a09      	ldr	r2, [pc, #36]	; (8000da8 <HAL_RCC_GetSysClockFreq+0x44>)
 8000d84:	f3c3 4340 	ubfx	r3, r3, #17, #1
 8000d88:	5cd3      	ldrb	r3, [r2, r3]
 8000d8a:	fbb0 f0f3 	udiv	r0, r0, r3
 8000d8e:	4770      	bx	lr
 8000d90:	4806      	ldr	r0, [pc, #24]	; (8000dac <HAL_RCC_GetSysClockFreq+0x48>)
 8000d92:	4350      	muls	r0, r2
 8000d94:	4770      	bx	lr
 8000d96:	4803      	ldr	r0, [pc, #12]	; (8000da4 <HAL_RCC_GetSysClockFreq+0x40>)
 8000d98:	4770      	bx	lr
 8000d9a:	bf00      	nop
 8000d9c:	40021000 	.word	0x40021000
 8000da0:	08002226 	.word	0x08002226
 8000da4:	007a1200 	.word	0x007a1200
 8000da8:	08002236 	.word	0x08002236
 8000dac:	003d0900 	.word	0x003d0900

08000db0 <HAL_RCC_ClockConfig>:
 8000db0:	e92d 41f0 	stmdb	sp!, {r4, r5, r6, r7, r8, lr}
 8000db4:	460d      	mov	r5, r1
 8000db6:	4604      	mov	r4, r0
 8000db8:	b910      	cbnz	r0, 8000dc0 <HAL_RCC_ClockConfig+0x10>
 8000dba:	2001      	movs	r0, #1
 8000dbc:	e8bd 81f0 	ldmia.w	sp!, {r4, r5, r6, r7, r8, pc}
 8000dc0:	4a44      	ldr	r2, [pc, #272]	; (8000ed4 <HAL_RCC_ClockConfig+0x124>)
 8000dc2:	6813      	ldr	r3, [r2, #0]
 8000dc4:	f003 0307 	and.w	r3, r3, #7
 8000dc8:	428b      	cmp	r3, r1
 8000dca:	d328      	bcc.n	8000e1e <HAL_RCC_ClockConfig+0x6e>
 8000dcc:	6821      	ldr	r1, [r4, #0]
 8000dce:	078e      	lsls	r6, r1, #30
 8000dd0:	d430      	bmi.n	8000e34 <HAL_RCC_ClockConfig+0x84>
 8000dd2:	07ca      	lsls	r2, r1, #31
 8000dd4:	d443      	bmi.n	8000e5e <HAL_RCC_ClockConfig+0xae>
 8000dd6:	4a3f      	ldr	r2, [pc, #252]	; (8000ed4 <HAL_RCC_ClockConfig+0x124>)
 8000dd8:	6813      	ldr	r3, [r2, #0]
 8000dda:	f003 0307 	and.w	r3, r3, #7
 8000dde:	42ab      	cmp	r3, r5
 8000de0:	d865      	bhi.n	8000eae <HAL_RCC_ClockConfig+0xfe>
 8000de2:	6822      	ldr	r2, [r4, #0]
 8000de4:	4d3c      	ldr	r5, [pc, #240]	; (8000ed8 <HAL_RCC_ClockConfig+0x128>)
 8000de6:	f012 0f04 	tst.w	r2, #4
 8000dea:	d16c      	bne.n	8000ec6 <HAL_RCC_ClockConfig+0x116>
 8000dec:	0713      	lsls	r3, r2, #28
 8000dee:	d506      	bpl.n	8000dfe <HAL_RCC_ClockConfig+0x4e>
 8000df0:	686b      	ldr	r3, [r5, #4]
 8000df2:	6922      	ldr	r2, [r4, #16]
 8000df4:	f423 5360 	bic.w	r3, r3, #14336	; 0x3800
 8000df8:	ea43 03c2 	orr.w	r3, r3, r2, lsl #3
 8000dfc:	606b      	str	r3, [r5, #4]
 8000dfe:	f7ff ffb1 	bl	8000d64 <HAL_RCC_GetSysClockFreq>
 8000e02:	686b      	ldr	r3, [r5, #4]
 8000e04:	4a35      	ldr	r2, [pc, #212]	; (8000edc <HAL_RCC_ClockConfig+0x12c>)
 8000e06:	f3c3 1303 	ubfx	r3, r3, #4, #4
 8000e0a:	5cd3      	ldrb	r3, [r2, r3]
 8000e0c:	40d8      	lsrs	r0, r3
 8000e0e:	4b34      	ldr	r3, [pc, #208]	; (8000ee0 <HAL_RCC_ClockConfig+0x130>)
 8000e10:	6018      	str	r0, [r3, #0]
 8000e12:	4b34      	ldr	r3, [pc, #208]	; (8000ee4 <HAL_RCC_ClockConfig+0x134>)
 8000e14:	6818      	ldr	r0, [r3, #0]
 8000e16:	f7ff fc0b 	bl	8000630 <HAL_InitTick>
 8000e1a:	2000      	movs	r0, #0
 8000e1c:	e7ce      	b.n	8000dbc <HAL_RCC_ClockConfig+0xc>
 8000e1e:	6813      	ldr	r3, [r2, #0]
 8000e20:	f023 0307 	bic.w	r3, r3, #7
 8000e24:	430b      	orrs	r3, r1
 8000e26:	6013      	str	r3, [r2, #0]
 8000e28:	6813      	ldr	r3, [r2, #0]
 8000e2a:	f003 0307 	and.w	r3, r3, #7
 8000e2e:	428b      	cmp	r3, r1
 8000e30:	d1c3      	bne.n	8000dba <HAL_RCC_ClockConfig+0xa>
 8000e32:	e7cb      	b.n	8000dcc <HAL_RCC_ClockConfig+0x1c>
 8000e34:	4b28      	ldr	r3, [pc, #160]	; (8000ed8 <HAL_RCC_ClockConfig+0x128>)
 8000e36:	f011 0f04 	tst.w	r1, #4
 8000e3a:	bf1e      	ittt	ne
 8000e3c:	685a      	ldrne	r2, [r3, #4]
 8000e3e:	f442 62e0 	orrne.w	r2, r2, #1792	; 0x700
 8000e42:	605a      	strne	r2, [r3, #4]
 8000e44:	0708      	lsls	r0, r1, #28
 8000e46:	bf42      	ittt	mi
 8000e48:	685a      	ldrmi	r2, [r3, #4]
 8000e4a:	f442 5260 	orrmi.w	r2, r2, #14336	; 0x3800
 8000e4e:	605a      	strmi	r2, [r3, #4]
 8000e50:	685a      	ldr	r2, [r3, #4]
 8000e52:	68a0      	ldr	r0, [r4, #8]
 8000e54:	f022 02f0 	bic.w	r2, r2, #240	; 0xf0
 8000e58:	4302      	orrs	r2, r0
 8000e5a:	605a      	str	r2, [r3, #4]
 8000e5c:	e7b9      	b.n	8000dd2 <HAL_RCC_ClockConfig+0x22>
 8000e5e:	6862      	ldr	r2, [r4, #4]
 8000e60:	4e1d      	ldr	r6, [pc, #116]	; (8000ed8 <HAL_RCC_ClockConfig+0x128>)
 8000e62:	2a01      	cmp	r2, #1
 8000e64:	6833      	ldr	r3, [r6, #0]
 8000e66:	d11a      	bne.n	8000e9e <HAL_RCC_ClockConfig+0xee>
 8000e68:	f413 3f00 	tst.w	r3, #131072	; 0x20000
 8000e6c:	d0a5      	beq.n	8000dba <HAL_RCC_ClockConfig+0xa>
 8000e6e:	6873      	ldr	r3, [r6, #4]
 8000e70:	f241 3888 	movw	r8, #5000	; 0x1388
 8000e74:	f023 0303 	bic.w	r3, r3, #3
 8000e78:	4313      	orrs	r3, r2
 8000e7a:	6073      	str	r3, [r6, #4]
 8000e7c:	f7ff fc1a 	bl	80006b4 <HAL_GetTick>
 8000e80:	4607      	mov	r7, r0
 8000e82:	6873      	ldr	r3, [r6, #4]
 8000e84:	6862      	ldr	r2, [r4, #4]
 8000e86:	f003 030c 	and.w	r3, r3, #12
 8000e8a:	ebb3 0f82 	cmp.w	r3, r2, lsl #2
 8000e8e:	d0a2      	beq.n	8000dd6 <HAL_RCC_ClockConfig+0x26>
 8000e90:	f7ff fc10 	bl	80006b4 <HAL_GetTick>
 8000e94:	1bc0      	subs	r0, r0, r7
 8000e96:	4540      	cmp	r0, r8
 8000e98:	d9f3      	bls.n	8000e82 <HAL_RCC_ClockConfig+0xd2>
 8000e9a:	2003      	movs	r0, #3
 8000e9c:	e78e      	b.n	8000dbc <HAL_RCC_ClockConfig+0xc>
 8000e9e:	2a02      	cmp	r2, #2
 8000ea0:	d102      	bne.n	8000ea8 <HAL_RCC_ClockConfig+0xf8>
 8000ea2:	f013 7f00 	tst.w	r3, #33554432	; 0x2000000
 8000ea6:	e7e1      	b.n	8000e6c <HAL_RCC_ClockConfig+0xbc>
 8000ea8:	f013 0f02 	tst.w	r3, #2
 8000eac:	e7de      	b.n	8000e6c <HAL_RCC_ClockConfig+0xbc>
 8000eae:	6813      	ldr	r3, [r2, #0]
 8000eb0:	f023 0307 	bic.w	r3, r3, #7
 8000eb4:	432b      	orrs	r3, r5
 8000eb6:	6013      	str	r3, [r2, #0]
 8000eb8:	6813      	ldr	r3, [r2, #0]
 8000eba:	f003 0307 	and.w	r3, r3, #7
 8000ebe:	42ab      	cmp	r3, r5
 8000ec0:	f47f af7b 	bne.w	8000dba <HAL_RCC_ClockConfig+0xa>
 8000ec4:	e78d      	b.n	8000de2 <HAL_RCC_ClockConfig+0x32>
 8000ec6:	686b      	ldr	r3, [r5, #4]
 8000ec8:	68e1      	ldr	r1, [r4, #12]
 8000eca:	f423 63e0 	bic.w	r3, r3, #1792	; 0x700
 8000ece:	430b      	orrs	r3, r1
 8000ed0:	606b      	str	r3, [r5, #4]
 8000ed2:	e78b      	b.n	8000dec <HAL_RCC_ClockConfig+0x3c>
 8000ed4:	40022000 	.word	0x40022000
 8000ed8:	40021000 	.word	0x40021000
 8000edc:	0800220e 	.word	0x0800220e
 8000ee0:	20000000 	.word	0x20000000
 8000ee4:	20000008 	.word	0x20000008

08000ee8 <HAL_RCC_GetPCLK1Freq>:
 8000ee8:	4b04      	ldr	r3, [pc, #16]	; (8000efc <HAL_RCC_GetPCLK1Freq+0x14>)
 8000eea:	4a05      	ldr	r2, [pc, #20]	; (8000f00 <HAL_RCC_GetPCLK1Freq+0x18>)
 8000eec:	685b      	ldr	r3, [r3, #4]
 8000eee:	f3c3 2302 	ubfx	r3, r3, #8, #3
 8000ef2:	5cd3      	ldrb	r3, [r2, r3]
 8000ef4:	4a03      	ldr	r2, [pc, #12]	; (8000f04 <HAL_RCC_GetPCLK1Freq+0x1c>)
 8000ef6:	6810      	ldr	r0, [r2, #0]
 8000ef8:	40d8      	lsrs	r0, r3
 8000efa:	4770      	bx	lr
 8000efc:	40021000 	.word	0x40021000
 8000f00:	0800221e 	.word	0x0800221e
 8000f04:	20000000 	.word	0x20000000

08000f08 <HAL_RCC_GetPCLK2Freq>:
 8000f08:	4b04      	ldr	r3, [pc, #16]	; (8000f1c <HAL_RCC_GetPCLK2Freq+0x14>)
 8000f0a:	4a05      	ldr	r2, [pc, #20]	; (8000f20 <HAL_RCC_GetPCLK2Freq+0x18>)
 8000f0c:	685b      	ldr	r3, [r3, #4]
 8000f0e:	f3c3 23c2 	ubfx	r3, r3, #11, #3
 8000f12:	5cd3      	ldrb	r3, [r2, r3]
 8000f14:	4a03      	ldr	r2, [pc, #12]	; (8000f24 <HAL_RCC_GetPCLK2Freq+0x1c>)
 8000f16:	6810      	ldr	r0, [r2, #0]
 8000f18:	40d8      	lsrs	r0, r3
 8000f1a:	4770      	bx	lr
 8000f1c:	40021000 	.word	0x40021000
 8000f20:	0800221e 	.word	0x0800221e
 8000f24:	20000000 	.word	0x20000000

08000f28 <HAL_TIM_Base_Start_IT>:
 8000f28:	f890 303d 	ldrb.w	r3, [r0, #61]	; 0x3d
 8000f2c:	2b01      	cmp	r3, #1
 8000f2e:	d11c      	bne.n	8000f6a <HAL_TIM_Base_Start_IT+0x42>
 8000f30:	2302      	movs	r3, #2
 8000f32:	f880 303d 	strb.w	r3, [r0, #61]	; 0x3d
 8000f36:	6803      	ldr	r3, [r0, #0]
 8000f38:	68da      	ldr	r2, [r3, #12]
 8000f3a:	f042 0201 	orr.w	r2, r2, #1
 8000f3e:	60da      	str	r2, [r3, #12]
 8000f40:	4a0b      	ldr	r2, [pc, #44]	; (8000f70 <HAL_TIM_Base_Start_IT+0x48>)
 8000f42:	4293      	cmp	r3, r2
 8000f44:	d006      	beq.n	8000f54 <HAL_TIM_Base_Start_IT+0x2c>
 8000f46:	f1b3 4f80 	cmp.w	r3, #1073741824	; 0x40000000
 8000f4a:	d003      	beq.n	8000f54 <HAL_TIM_Base_Start_IT+0x2c>
 8000f4c:	f5a2 3294 	sub.w	r2, r2, #75776	; 0x12800
 8000f50:	4293      	cmp	r3, r2
 8000f52:	d104      	bne.n	8000f5e <HAL_TIM_Base_Start_IT+0x36>
 8000f54:	689a      	ldr	r2, [r3, #8]
 8000f56:	f002 0207 	and.w	r2, r2, #7
 8000f5a:	2a06      	cmp	r2, #6
 8000f5c:	d003      	beq.n	8000f66 <HAL_TIM_Base_Start_IT+0x3e>
 8000f5e:	681a      	ldr	r2, [r3, #0]
 8000f60:	f042 0201 	orr.w	r2, r2, #1
 8000f64:	601a      	str	r2, [r3, #0]
 8000f66:	2000      	movs	r0, #0
 8000f68:	4770      	bx	lr
 8000f6a:	2001      	movs	r0, #1
 8000f6c:	4770      	bx	lr
 8000f6e:	bf00      	nop
 8000f70:	40012c00 	.word	0x40012c00

08000f74 <HAL_TIM_OC_DelayElapsedCallback>:
 8000f74:	4770      	bx	lr

08000f76 <HAL_TIM_IC_CaptureCallback>:
 8000f76:	4770      	bx	lr

08000f78 <HAL_TIM_PWM_PulseFinishedCallback>:
 8000f78:	4770      	bx	lr

08000f7a <HAL_TIM_TriggerCallback>:
 8000f7a:	4770      	bx	lr

08000f7c <HAL_TIM_IRQHandler>:
 8000f7c:	6803      	ldr	r3, [r0, #0]
 8000f7e:	b570      	push	{r4, r5, r6, lr}
 8000f80:	68dd      	ldr	r5, [r3, #12]
 8000f82:	691e      	ldr	r6, [r3, #16]
 8000f84:	4604      	mov	r4, r0
 8000f86:	07b1      	lsls	r1, r6, #30
 8000f88:	d50d      	bpl.n	8000fa6 <HAL_TIM_IRQHandler+0x2a>
 8000f8a:	07aa      	lsls	r2, r5, #30
 8000f8c:	d50b      	bpl.n	8000fa6 <HAL_TIM_IRQHandler+0x2a>
 8000f8e:	f06f 0202 	mvn.w	r2, #2
 8000f92:	611a      	str	r2, [r3, #16]
 8000f94:	2201      	movs	r2, #1
 8000f96:	7702      	strb	r2, [r0, #28]
 8000f98:	699b      	ldr	r3, [r3, #24]
 8000f9a:	079b      	lsls	r3, r3, #30
 8000f9c:	d069      	beq.n	8001072 <HAL_TIM_IRQHandler+0xf6>
 8000f9e:	f7ff ffea 	bl	8000f76 <HAL_TIM_IC_CaptureCallback>
 8000fa2:	2300      	movs	r3, #0
 8000fa4:	7723      	strb	r3, [r4, #28]
 8000fa6:	0771      	lsls	r1, r6, #29
 8000fa8:	d510      	bpl.n	8000fcc <HAL_TIM_IRQHandler+0x50>
 8000faa:	076a      	lsls	r2, r5, #29
 8000fac:	d50e      	bpl.n	8000fcc <HAL_TIM_IRQHandler+0x50>
 8000fae:	f06f 0204 	mvn.w	r2, #4
 8000fb2:	6823      	ldr	r3, [r4, #0]
 8000fb4:	4620      	mov	r0, r4
 8000fb6:	611a      	str	r2, [r3, #16]
 8000fb8:	2202      	movs	r2, #2
 8000fba:	7722      	strb	r2, [r4, #28]
 8000fbc:	699b      	ldr	r3, [r3, #24]
 8000fbe:	f413 7f40 	tst.w	r3, #768	; 0x300
 8000fc2:	d05c      	beq.n	800107e <HAL_TIM_IRQHandler+0x102>
 8000fc4:	f7ff ffd7 	bl	8000f76 <HAL_TIM_IC_CaptureCallback>
 8000fc8:	2300      	movs	r3, #0
 8000fca:	7723      	strb	r3, [r4, #28]
 8000fcc:	0733      	lsls	r3, r6, #28
 8000fce:	d50f      	bpl.n	8000ff0 <HAL_TIM_IRQHandler+0x74>
 8000fd0:	0728      	lsls	r0, r5, #28
 8000fd2:	d50d      	bpl.n	8000ff0 <HAL_TIM_IRQHandler+0x74>
 8000fd4:	f06f 0208 	mvn.w	r2, #8
 8000fd8:	6823      	ldr	r3, [r4, #0]
 8000fda:	4620      	mov	r0, r4
 8000fdc:	611a      	str	r2, [r3, #16]
 8000fde:	2204      	movs	r2, #4
 8000fe0:	7722      	strb	r2, [r4, #28]
 8000fe2:	69db      	ldr	r3, [r3, #28]
 8000fe4:	0799      	lsls	r1, r3, #30
 8000fe6:	d050      	beq.n	800108a <HAL_TIM_IRQHandler+0x10e>
 8000fe8:	f7ff ffc5 	bl	8000f76 <HAL_TIM_IC_CaptureCallback>
 8000fec:	2300      	movs	r3, #0
 8000fee:	7723      	strb	r3, [r4, #28]
 8000ff0:	06f2      	lsls	r2, r6, #27
 8000ff2:	d510      	bpl.n	8001016 <HAL_TIM_IRQHandler+0x9a>
 8000ff4:	06eb      	lsls	r3, r5, #27
 8000ff6:	d50e      	bpl.n	8001016 <HAL_TIM_IRQHandler+0x9a>
 8000ff8:	f06f 0210 	mvn.w	r2, #16
 8000ffc:	6823      	ldr	r3, [r4, #0]
 8000ffe:	4620      	mov	r0, r4
 8001000:	611a      	str	r2, [r3, #16]
 8001002:	2208      	movs	r2, #8
 8001004:	7722      	strb	r2, [r4, #28]
 8001006:	69db      	ldr	r3, [r3, #28]
 8001008:	f413 7f40 	tst.w	r3, #768	; 0x300
 800100c:	d043      	beq.n	8001096 <HAL_TIM_IRQHandler+0x11a>
 800100e:	f7ff ffb2 	bl	8000f76 <HAL_TIM_IC_CaptureCallback>
 8001012:	2300      	movs	r3, #0
 8001014:	7723      	strb	r3, [r4, #28]
 8001016:	07f0      	lsls	r0, r6, #31
 8001018:	d508      	bpl.n	800102c <HAL_TIM_IRQHandler+0xb0>
 800101a:	07e9      	lsls	r1, r5, #31
 800101c:	d506      	bpl.n	800102c <HAL_TIM_IRQHandler+0xb0>
 800101e:	f06f 0201 	mvn.w	r2, #1
 8001022:	6823      	ldr	r3, [r4, #0]
 8001024:	4620      	mov	r0, r4
 8001026:	611a      	str	r2, [r3, #16]
 8001028:	f7ff fa1a 	bl	8000460 <HAL_TIM_PeriodElapsedCallback>
 800102c:	0632      	lsls	r2, r6, #24
 800102e:	d508      	bpl.n	8001042 <HAL_TIM_IRQHandler+0xc6>
 8001030:	062b      	lsls	r3, r5, #24
 8001032:	d506      	bpl.n	8001042 <HAL_TIM_IRQHandler+0xc6>
 8001034:	f06f 0280 	mvn.w	r2, #128	; 0x80
 8001038:	6823      	ldr	r3, [r4, #0]
 800103a:	4620      	mov	r0, r4
 800103c:	611a      	str	r2, [r3, #16]
 800103e:	f000 f966 	bl	800130e <HAL_TIMEx_BreakCallback>
 8001042:	0670      	lsls	r0, r6, #25
 8001044:	d508      	bpl.n	8001058 <HAL_TIM_IRQHandler+0xdc>
 8001046:	0669      	lsls	r1, r5, #25
 8001048:	d506      	bpl.n	8001058 <HAL_TIM_IRQHandler+0xdc>
 800104a:	f06f 0240 	mvn.w	r2, #64	; 0x40
 800104e:	6823      	ldr	r3, [r4, #0]
 8001050:	4620      	mov	r0, r4
 8001052:	611a      	str	r2, [r3, #16]
 8001054:	f7ff ff91 	bl	8000f7a <HAL_TIM_TriggerCallback>
 8001058:	06b2      	lsls	r2, r6, #26
 800105a:	d522      	bpl.n	80010a2 <HAL_TIM_IRQHandler+0x126>
 800105c:	06ab      	lsls	r3, r5, #26
 800105e:	d520      	bpl.n	80010a2 <HAL_TIM_IRQHandler+0x126>
 8001060:	f06f 0220 	mvn.w	r2, #32
 8001064:	6823      	ldr	r3, [r4, #0]
 8001066:	4620      	mov	r0, r4
 8001068:	e8bd 4070 	ldmia.w	sp!, {r4, r5, r6, lr}
 800106c:	611a      	str	r2, [r3, #16]
 800106e:	f000 b94d 	b.w	800130c <HAL_TIMEx_CommutCallback>
 8001072:	f7ff ff7f 	bl	8000f74 <HAL_TIM_OC_DelayElapsedCallback>
 8001076:	4620      	mov	r0, r4
 8001078:	f7ff ff7e 	bl	8000f78 <HAL_TIM_PWM_PulseFinishedCallback>
 800107c:	e791      	b.n	8000fa2 <HAL_TIM_IRQHandler+0x26>
 800107e:	f7ff ff79 	bl	8000f74 <HAL_TIM_OC_DelayElapsedCallback>
 8001082:	4620      	mov	r0, r4
 8001084:	f7ff ff78 	bl	8000f78 <HAL_TIM_PWM_PulseFinishedCallback>
 8001088:	e79e      	b.n	8000fc8 <HAL_TIM_IRQHandler+0x4c>
 800108a:	f7ff ff73 	bl	8000f74 <HAL_TIM_OC_DelayElapsedCallback>
 800108e:	4620      	mov	r0, r4
 8001090:	f7ff ff72 	bl	8000f78 <HAL_TIM_PWM_PulseFinishedCallback>
 8001094:	e7aa      	b.n	8000fec <HAL_TIM_IRQHandler+0x70>
 8001096:	f7ff ff6d 	bl	8000f74 <HAL_TIM_OC_DelayElapsedCallback>
 800109a:	4620      	mov	r0, r4
 800109c:	f7ff ff6c 	bl	8000f78 <HAL_TIM_PWM_PulseFinishedCallback>
 80010a0:	e7b7      	b.n	8001012 <HAL_TIM_IRQHandler+0x96>
 80010a2:	bd70      	pop	{r4, r5, r6, pc}

080010a4 <TIM_Base_SetConfig>:
 80010a4:	4a19      	ldr	r2, [pc, #100]	; (800110c <TIM_Base_SetConfig+0x68>)
 80010a6:	b510      	push	{r4, lr}
 80010a8:	4290      	cmp	r0, r2
 80010aa:	6803      	ldr	r3, [r0, #0]
 80010ac:	d005      	beq.n	80010ba <TIM_Base_SetConfig+0x16>
 80010ae:	f1b0 4f80 	cmp.w	r0, #1073741824	; 0x40000000
 80010b2:	d002      	beq.n	80010ba <TIM_Base_SetConfig+0x16>
 80010b4:	4c16      	ldr	r4, [pc, #88]	; (8001110 <TIM_Base_SetConfig+0x6c>)
 80010b6:	42a0      	cmp	r0, r4
 80010b8:	d110      	bne.n	80010dc <TIM_Base_SetConfig+0x38>
 80010ba:	684c      	ldr	r4, [r1, #4]
 80010bc:	f023 0370 	bic.w	r3, r3, #112	; 0x70
 80010c0:	4290      	cmp	r0, r2
 80010c2:	ea43 0304 	orr.w	r3, r3, r4
 80010c6:	d005      	beq.n	80010d4 <TIM_Base_SetConfig+0x30>
 80010c8:	f1b0 4f80 	cmp.w	r0, #1073741824	; 0x40000000
 80010cc:	d002      	beq.n	80010d4 <TIM_Base_SetConfig+0x30>
 80010ce:	4a10      	ldr	r2, [pc, #64]	; (8001110 <TIM_Base_SetConfig+0x6c>)
 80010d0:	4290      	cmp	r0, r2
 80010d2:	d103      	bne.n	80010dc <TIM_Base_SetConfig+0x38>
 80010d4:	68ca      	ldr	r2, [r1, #12]
 80010d6:	f423 7340 	bic.w	r3, r3, #768	; 0x300
 80010da:	4313      	orrs	r3, r2
 80010dc:	694a      	ldr	r2, [r1, #20]
 80010de:	f023 0380 	bic.w	r3, r3, #128	; 0x80
 80010e2:	4313      	orrs	r3, r2
 80010e4:	6003      	str	r3, [r0, #0]
 80010e6:	688b      	ldr	r3, [r1, #8]
 80010e8:	62c3      	str	r3, [r0, #44]	; 0x2c
 80010ea:	680b      	ldr	r3, [r1, #0]
 80010ec:	6283      	str	r3, [r0, #40]	; 0x28
 80010ee:	4b07      	ldr	r3, [pc, #28]	; (800110c <TIM_Base_SetConfig+0x68>)
 80010f0:	4298      	cmp	r0, r3
 80010f2:	bf04      	itt	eq
 80010f4:	690b      	ldreq	r3, [r1, #16]
 80010f6:	6303      	streq	r3, [r0, #48]	; 0x30
 80010f8:	2301      	movs	r3, #1
 80010fa:	6143      	str	r3, [r0, #20]
 80010fc:	6903      	ldr	r3, [r0, #16]
 80010fe:	07db      	lsls	r3, r3, #31
 8001100:	bf42      	ittt	mi
 8001102:	6903      	ldrmi	r3, [r0, #16]
 8001104:	f023 0301 	bicmi.w	r3, r3, #1
 8001108:	6103      	strmi	r3, [r0, #16]
 800110a:	bd10      	pop	{r4, pc}
 800110c:	40012c00 	.word	0x40012c00
 8001110:	40000400 	.word	0x40000400

08001114 <HAL_TIM_Base_Init>:
 8001114:	b510      	push	{r4, lr}
 8001116:	4604      	mov	r4, r0
 8001118:	b330      	cbz	r0, 8001168 <HAL_TIM_Base_Init+0x54>
 800111a:	f890 303d 	ldrb.w	r3, [r0, #61]	; 0x3d
 800111e:	f003 02ff 	and.w	r2, r3, #255	; 0xff
 8001122:	b91b      	cbnz	r3, 800112c <HAL_TIM_Base_Init+0x18>
 8001124:	f880 203c 	strb.w	r2, [r0, #60]	; 0x3c
 8001128:	f7ff f9c4 	bl	80004b4 <HAL_TIM_Base_MspInit>
 800112c:	2302      	movs	r3, #2
 800112e:	6820      	ldr	r0, [r4, #0]
 8001130:	f884 303d 	strb.w	r3, [r4, #61]	; 0x3d
 8001134:	1d21      	adds	r1, r4, #4
 8001136:	f7ff ffb5 	bl	80010a4 <TIM_Base_SetConfig>
 800113a:	2301      	movs	r3, #1
 800113c:	2000      	movs	r0, #0
 800113e:	f884 3046 	strb.w	r3, [r4, #70]	; 0x46
 8001142:	f884 303e 	strb.w	r3, [r4, #62]	; 0x3e
 8001146:	f884 303f 	strb.w	r3, [r4, #63]	; 0x3f
 800114a:	f884 3040 	strb.w	r3, [r4, #64]	; 0x40
 800114e:	f884 3041 	strb.w	r3, [r4, #65]	; 0x41
 8001152:	f884 3042 	strb.w	r3, [r4, #66]	; 0x42
 8001156:	f884 3043 	strb.w	r3, [r4, #67]	; 0x43
 800115a:	f884 3044 	strb.w	r3, [r4, #68]	; 0x44
 800115e:	f884 3045 	strb.w	r3, [r4, #69]	; 0x45
 8001162:	f884 303d 	strb.w	r3, [r4, #61]	; 0x3d
 8001166:	bd10      	pop	{r4, pc}
 8001168:	2001      	movs	r0, #1
 800116a:	e7fc      	b.n	8001166 <HAL_TIM_Base_Init+0x52>

0800116c <TIM_ETR_SetConfig>:
 800116c:	b510      	push	{r4, lr}
 800116e:	6884      	ldr	r4, [r0, #8]
 8001170:	430a      	orrs	r2, r1
 8001172:	f424 447f 	bic.w	r4, r4, #65280	; 0xff00
 8001176:	ea42 2203 	orr.w	r2, r2, r3, lsl #8
 800117a:	4322      	orrs	r2, r4
 800117c:	6082      	str	r2, [r0, #8]
 800117e:	bd10      	pop	{r4, pc}

08001180 <HAL_TIM_ConfigClockSource>:
 8001180:	b570      	push	{r4, r5, r6, lr}
 8001182:	f890 303c 	ldrb.w	r3, [r0, #60]	; 0x3c
 8001186:	4604      	mov	r4, r0
 8001188:	2b01      	cmp	r3, #1
 800118a:	f04f 0302 	mov.w	r3, #2
 800118e:	f000 8091 	beq.w	80012b4 <HAL_TIM_ConfigClockSource+0x134>
 8001192:	2201      	movs	r2, #1
 8001194:	f880 303d 	strb.w	r3, [r0, #61]	; 0x3d
 8001198:	f880 203c 	strb.w	r2, [r0, #60]	; 0x3c
 800119c:	6800      	ldr	r0, [r0, #0]
 800119e:	6883      	ldr	r3, [r0, #8]
 80011a0:	f423 437f 	bic.w	r3, r3, #65280	; 0xff00
 80011a4:	f023 0377 	bic.w	r3, r3, #119	; 0x77
 80011a8:	6083      	str	r3, [r0, #8]
 80011aa:	680b      	ldr	r3, [r1, #0]
 80011ac:	2b60      	cmp	r3, #96	; 0x60
 80011ae:	d052      	beq.n	8001256 <HAL_TIM_ConfigClockSource+0xd6>
 80011b0:	d833      	bhi.n	800121a <HAL_TIM_ConfigClockSource+0x9a>
 80011b2:	2b40      	cmp	r3, #64	; 0x40
 80011b4:	d067      	beq.n	8001286 <HAL_TIM_ConfigClockSource+0x106>
 80011b6:	d816      	bhi.n	80011e6 <HAL_TIM_ConfigClockSource+0x66>
 80011b8:	2b20      	cmp	r3, #32
 80011ba:	d00d      	beq.n	80011d8 <HAL_TIM_ConfigClockSource+0x58>
 80011bc:	d80a      	bhi.n	80011d4 <HAL_TIM_ConfigClockSource+0x54>
 80011be:	f033 0110 	bics.w	r1, r3, #16
 80011c2:	d009      	beq.n	80011d8 <HAL_TIM_ConfigClockSource+0x58>
 80011c4:	2301      	movs	r3, #1
 80011c6:	f884 303d 	strb.w	r3, [r4, #61]	; 0x3d
 80011ca:	2300      	movs	r3, #0
 80011cc:	f884 303c 	strb.w	r3, [r4, #60]	; 0x3c
 80011d0:	4610      	mov	r0, r2
 80011d2:	bd70      	pop	{r4, r5, r6, pc}
 80011d4:	2b30      	cmp	r3, #48	; 0x30
 80011d6:	d1f5      	bne.n	80011c4 <HAL_TIM_ConfigClockSource+0x44>
 80011d8:	6882      	ldr	r2, [r0, #8]
 80011da:	f022 0270 	bic.w	r2, r2, #112	; 0x70
 80011de:	4313      	orrs	r3, r2
 80011e0:	f043 0307 	orr.w	r3, r3, #7
 80011e4:	e017      	b.n	8001216 <HAL_TIM_ConfigClockSource+0x96>
 80011e6:	2b50      	cmp	r3, #80	; 0x50
 80011e8:	d1ec      	bne.n	80011c4 <HAL_TIM_ConfigClockSource+0x44>
 80011ea:	684a      	ldr	r2, [r1, #4]
 80011ec:	68ce      	ldr	r6, [r1, #12]
 80011ee:	6a01      	ldr	r1, [r0, #32]
 80011f0:	6a05      	ldr	r5, [r0, #32]
 80011f2:	f021 010a 	bic.w	r1, r1, #10
 80011f6:	f025 0501 	bic.w	r5, r5, #1
 80011fa:	6205      	str	r5, [r0, #32]
 80011fc:	6983      	ldr	r3, [r0, #24]
 80011fe:	430a      	orrs	r2, r1
 8001200:	f023 03f0 	bic.w	r3, r3, #240	; 0xf0
 8001204:	ea43 1306 	orr.w	r3, r3, r6, lsl #4
 8001208:	6183      	str	r3, [r0, #24]
 800120a:	6202      	str	r2, [r0, #32]
 800120c:	6883      	ldr	r3, [r0, #8]
 800120e:	f023 0370 	bic.w	r3, r3, #112	; 0x70
 8001212:	f043 0357 	orr.w	r3, r3, #87	; 0x57
 8001216:	6083      	str	r3, [r0, #8]
 8001218:	e011      	b.n	800123e <HAL_TIM_ConfigClockSource+0xbe>
 800121a:	f5b3 5f80 	cmp.w	r3, #4096	; 0x1000
 800121e:	d00e      	beq.n	800123e <HAL_TIM_ConfigClockSource+0xbe>
 8001220:	f5b3 5f00 	cmp.w	r3, #8192	; 0x2000
 8001224:	d00d      	beq.n	8001242 <HAL_TIM_ConfigClockSource+0xc2>
 8001226:	2b70      	cmp	r3, #112	; 0x70
 8001228:	d1cc      	bne.n	80011c4 <HAL_TIM_ConfigClockSource+0x44>
 800122a:	68cb      	ldr	r3, [r1, #12]
 800122c:	e9d1 2101 	ldrd	r2, r1, [r1, #4]
 8001230:	f7ff ff9c 	bl	800116c <TIM_ETR_SetConfig>
 8001234:	6822      	ldr	r2, [r4, #0]
 8001236:	6893      	ldr	r3, [r2, #8]
 8001238:	f043 0377 	orr.w	r3, r3, #119	; 0x77
 800123c:	6093      	str	r3, [r2, #8]
 800123e:	2200      	movs	r2, #0
 8001240:	e7c0      	b.n	80011c4 <HAL_TIM_ConfigClockSource+0x44>
 8001242:	68cb      	ldr	r3, [r1, #12]
 8001244:	e9d1 2101 	ldrd	r2, r1, [r1, #4]
 8001248:	f7ff ff90 	bl	800116c <TIM_ETR_SetConfig>
 800124c:	6822      	ldr	r2, [r4, #0]
 800124e:	6893      	ldr	r3, [r2, #8]
 8001250:	f443 4380 	orr.w	r3, r3, #16384	; 0x4000
 8001254:	e7f2      	b.n	800123c <HAL_TIM_ConfigClockSource+0xbc>
 8001256:	6a03      	ldr	r3, [r0, #32]
 8001258:	684d      	ldr	r5, [r1, #4]
 800125a:	68ce      	ldr	r6, [r1, #12]
 800125c:	6a01      	ldr	r1, [r0, #32]
 800125e:	f023 03a0 	bic.w	r3, r3, #160	; 0xa0
 8001262:	f021 0110 	bic.w	r1, r1, #16
 8001266:	6201      	str	r1, [r0, #32]
 8001268:	6982      	ldr	r2, [r0, #24]
 800126a:	ea43 1305 	orr.w	r3, r3, r5, lsl #4
 800126e:	f422 4270 	bic.w	r2, r2, #61440	; 0xf000
 8001272:	ea42 3206 	orr.w	r2, r2, r6, lsl #12
 8001276:	6182      	str	r2, [r0, #24]
 8001278:	6203      	str	r3, [r0, #32]
 800127a:	6883      	ldr	r3, [r0, #8]
 800127c:	f023 0370 	bic.w	r3, r3, #112	; 0x70
 8001280:	f043 0367 	orr.w	r3, r3, #103	; 0x67
 8001284:	e7c7      	b.n	8001216 <HAL_TIM_ConfigClockSource+0x96>
 8001286:	684a      	ldr	r2, [r1, #4]
 8001288:	68ce      	ldr	r6, [r1, #12]
 800128a:	6a01      	ldr	r1, [r0, #32]
 800128c:	6a05      	ldr	r5, [r0, #32]
 800128e:	f021 010a 	bic.w	r1, r1, #10
 8001292:	f025 0501 	bic.w	r5, r5, #1
 8001296:	6205      	str	r5, [r0, #32]
 8001298:	6983      	ldr	r3, [r0, #24]
 800129a:	430a      	orrs	r2, r1
 800129c:	f023 03f0 	bic.w	r3, r3, #240	; 0xf0
 80012a0:	ea43 1306 	orr.w	r3, r3, r6, lsl #4
 80012a4:	6183      	str	r3, [r0, #24]
 80012a6:	6202      	str	r2, [r0, #32]
 80012a8:	6883      	ldr	r3, [r0, #8]
 80012aa:	f023 0370 	bic.w	r3, r3, #112	; 0x70
 80012ae:	f043 0347 	orr.w	r3, r3, #71	; 0x47
 80012b2:	e7b0      	b.n	8001216 <HAL_TIM_ConfigClockSource+0x96>
 80012b4:	461a      	mov	r2, r3
 80012b6:	e78b      	b.n	80011d0 <HAL_TIM_ConfigClockSource+0x50>

080012b8 <HAL_TIMEx_MasterConfigSynchronization>:
 80012b8:	b530      	push	{r4, r5, lr}
 80012ba:	f890 203c 	ldrb.w	r2, [r0, #60]	; 0x3c
 80012be:	4603      	mov	r3, r0
 80012c0:	2a01      	cmp	r2, #1
 80012c2:	f04f 0002 	mov.w	r0, #2
 80012c6:	d01e      	beq.n	8001306 <HAL_TIMEx_MasterConfigSynchronization+0x4e>
 80012c8:	681a      	ldr	r2, [r3, #0]
 80012ca:	f883 003d 	strb.w	r0, [r3, #61]	; 0x3d
 80012ce:	6854      	ldr	r4, [r2, #4]
 80012d0:	680d      	ldr	r5, [r1, #0]
 80012d2:	f024 0470 	bic.w	r4, r4, #112	; 0x70
 80012d6:	432c      	orrs	r4, r5
 80012d8:	6890      	ldr	r0, [r2, #8]
 80012da:	6054      	str	r4, [r2, #4]
 80012dc:	4c0a      	ldr	r4, [pc, #40]	; (8001308 <HAL_TIMEx_MasterConfigSynchronization+0x50>)
 80012de:	42a2      	cmp	r2, r4
 80012e0:	d006      	beq.n	80012f0 <HAL_TIMEx_MasterConfigSynchronization+0x38>
 80012e2:	f1b2 4f80 	cmp.w	r2, #1073741824	; 0x40000000
 80012e6:	d003      	beq.n	80012f0 <HAL_TIMEx_MasterConfigSynchronization+0x38>
 80012e8:	f5a4 3494 	sub.w	r4, r4, #75776	; 0x12800
 80012ec:	42a2      	cmp	r2, r4
 80012ee:	d104      	bne.n	80012fa <HAL_TIMEx_MasterConfigSynchronization+0x42>
 80012f0:	6849      	ldr	r1, [r1, #4]
 80012f2:	f020 0080 	bic.w	r0, r0, #128	; 0x80
 80012f6:	4301      	orrs	r1, r0
 80012f8:	6091      	str	r1, [r2, #8]
 80012fa:	2201      	movs	r2, #1
 80012fc:	2000      	movs	r0, #0
 80012fe:	f883 203d 	strb.w	r2, [r3, #61]	; 0x3d
 8001302:	f883 003c 	strb.w	r0, [r3, #60]	; 0x3c
 8001306:	bd30      	pop	{r4, r5, pc}
 8001308:	40012c00 	.word	0x40012c00

0800130c <HAL_TIMEx_CommutCallback>:
 800130c:	4770      	bx	lr

0800130e <HAL_TIMEx_BreakCallback>:
 800130e:	4770      	bx	lr

08001310 <UART_EndRxTransfer>:
 8001310:	6802      	ldr	r2, [r0, #0]
 8001312:	f102 030c 	add.w	r3, r2, #12
 8001316:	e853 3f00 	ldrex	r3, [r3]
 800131a:	f423 7390 	bic.w	r3, r3, #288	; 0x120
 800131e:	320c      	adds	r2, #12
 8001320:	e842 3100 	strex	r1, r3, [r2]
 8001324:	6802      	ldr	r2, [r0, #0]
 8001326:	2900      	cmp	r1, #0
 8001328:	d1f2      	bne.n	8001310 <UART_EndRxTransfer>
 800132a:	f102 0314 	add.w	r3, r2, #20
 800132e:	e853 3f00 	ldrex	r3, [r3]
 8001332:	f023 0301 	bic.w	r3, r3, #1
 8001336:	f102 0c14 	add.w	ip, r2, #20
 800133a:	e84c 3100 	strex	r1, r3, [ip]
 800133e:	2900      	cmp	r1, #0
 8001340:	d1f3      	bne.n	800132a <UART_EndRxTransfer+0x1a>
 8001342:	6b03      	ldr	r3, [r0, #48]	; 0x30
 8001344:	2b01      	cmp	r3, #1
 8001346:	d10b      	bne.n	8001360 <UART_EndRxTransfer+0x50>
 8001348:	f102 030c 	add.w	r3, r2, #12
 800134c:	e853 3f00 	ldrex	r3, [r3]
 8001350:	f023 0310 	bic.w	r3, r3, #16
 8001354:	f102 0c0c 	add.w	ip, r2, #12
 8001358:	e84c 3100 	strex	r1, r3, [ip]
 800135c:	2900      	cmp	r1, #0
 800135e:	d1f3      	bne.n	8001348 <UART_EndRxTransfer+0x38>
 8001360:	2320      	movs	r3, #32
 8001362:	f880 3042 	strb.w	r3, [r0, #66]	; 0x42
 8001366:	2300      	movs	r3, #0
 8001368:	6303      	str	r3, [r0, #48]	; 0x30
 800136a:	4770      	bx	lr

0800136c <UART_SetConfig>:
 800136c:	b510      	push	{r4, lr}
 800136e:	4604      	mov	r4, r0
 8001370:	6803      	ldr	r3, [r0, #0]
 8001372:	68c1      	ldr	r1, [r0, #12]
 8001374:	691a      	ldr	r2, [r3, #16]
 8001376:	f422 5240 	bic.w	r2, r2, #12288	; 0x3000
 800137a:	430a      	orrs	r2, r1
 800137c:	611a      	str	r2, [r3, #16]
 800137e:	6882      	ldr	r2, [r0, #8]
 8001380:	6900      	ldr	r0, [r0, #16]
 8001382:	68d9      	ldr	r1, [r3, #12]
 8001384:	4302      	orrs	r2, r0
 8001386:	6960      	ldr	r0, [r4, #20]
 8001388:	f421 51b0 	bic.w	r1, r1, #5632	; 0x1600
 800138c:	f021 010c 	bic.w	r1, r1, #12
 8001390:	4302      	orrs	r2, r0
 8001392:	430a      	orrs	r2, r1
 8001394:	60da      	str	r2, [r3, #12]
 8001396:	695a      	ldr	r2, [r3, #20]
 8001398:	69a1      	ldr	r1, [r4, #24]
 800139a:	f422 7240 	bic.w	r2, r2, #768	; 0x300
 800139e:	430a      	orrs	r2, r1
 80013a0:	615a      	str	r2, [r3, #20]
 80013a2:	4a0e      	ldr	r2, [pc, #56]	; (80013dc <UART_SetConfig+0x70>)
 80013a4:	4293      	cmp	r3, r2
 80013a6:	d115      	bne.n	80013d4 <UART_SetConfig+0x68>
 80013a8:	f7ff fdae 	bl	8000f08 <HAL_RCC_GetPCLK2Freq>
 80013ac:	2319      	movs	r3, #25
 80013ae:	4343      	muls	r3, r0
 80013b0:	6862      	ldr	r2, [r4, #4]
 80013b2:	6820      	ldr	r0, [r4, #0]
 80013b4:	0092      	lsls	r2, r2, #2
 80013b6:	fbb3 f3f2 	udiv	r3, r3, r2
 80013ba:	2264      	movs	r2, #100	; 0x64
 80013bc:	fbb3 f1f2 	udiv	r1, r3, r2
 80013c0:	fb02 3311 	mls	r3, r2, r1, r3
 80013c4:	011b      	lsls	r3, r3, #4
 80013c6:	3332      	adds	r3, #50	; 0x32
 80013c8:	fbb3 f3f2 	udiv	r3, r3, r2
 80013cc:	eb03 1301 	add.w	r3, r3, r1, lsl #4
 80013d0:	6083      	str	r3, [r0, #8]
 80013d2:	bd10      	pop	{r4, pc}
 80013d4:	f7ff fd88 	bl	8000ee8 <HAL_RCC_GetPCLK1Freq>
 80013d8:	e7e8      	b.n	80013ac <UART_SetConfig+0x40>
 80013da:	bf00      	nop
 80013dc:	40013800 	.word	0x40013800

080013e0 <UART_WaitOnFlagUntilTimeout.constprop.0>:
 80013e0:	b5f7      	push	{r0, r1, r2, r4, r5, r6, r7, lr}
 80013e2:	4604      	mov	r4, r0
 80013e4:	460d      	mov	r5, r1
 80013e6:	4617      	mov	r7, r2
 80013e8:	461e      	mov	r6, r3
 80013ea:	6822      	ldr	r2, [r4, #0]
 80013ec:	6813      	ldr	r3, [r2, #0]
 80013ee:	ea35 0303 	bics.w	r3, r5, r3
 80013f2:	d101      	bne.n	80013f8 <UART_WaitOnFlagUntilTimeout.constprop.0+0x18>
 80013f4:	2000      	movs	r0, #0
 80013f6:	e021      	b.n	800143c <UART_WaitOnFlagUntilTimeout.constprop.0+0x5c>
 80013f8:	1c70      	adds	r0, r6, #1
 80013fa:	d0f7      	beq.n	80013ec <UART_WaitOnFlagUntilTimeout.constprop.0+0xc>
 80013fc:	f7ff f95a 	bl	80006b4 <HAL_GetTick>
 8001400:	1bc0      	subs	r0, r0, r7
 8001402:	4286      	cmp	r6, r0
 8001404:	d31c      	bcc.n	8001440 <UART_WaitOnFlagUntilTimeout.constprop.0+0x60>
 8001406:	b1de      	cbz	r6, 8001440 <UART_WaitOnFlagUntilTimeout.constprop.0+0x60>
 8001408:	6823      	ldr	r3, [r4, #0]
 800140a:	68da      	ldr	r2, [r3, #12]
 800140c:	0751      	lsls	r1, r2, #29
 800140e:	d5ec      	bpl.n	80013ea <UART_WaitOnFlagUntilTimeout.constprop.0+0xa>
 8001410:	2d80      	cmp	r5, #128	; 0x80
 8001412:	d0ea      	beq.n	80013ea <UART_WaitOnFlagUntilTimeout.constprop.0+0xa>
 8001414:	2d40      	cmp	r5, #64	; 0x40
 8001416:	d0e8      	beq.n	80013ea <UART_WaitOnFlagUntilTimeout.constprop.0+0xa>
 8001418:	681a      	ldr	r2, [r3, #0]
 800141a:	0712      	lsls	r2, r2, #28
 800141c:	d5e5      	bpl.n	80013ea <UART_WaitOnFlagUntilTimeout.constprop.0+0xa>
 800141e:	2500      	movs	r5, #0
 8001420:	9501      	str	r5, [sp, #4]
 8001422:	681a      	ldr	r2, [r3, #0]
 8001424:	4620      	mov	r0, r4
 8001426:	9201      	str	r2, [sp, #4]
 8001428:	685b      	ldr	r3, [r3, #4]
 800142a:	9301      	str	r3, [sp, #4]
 800142c:	9b01      	ldr	r3, [sp, #4]
 800142e:	f7ff ff6f 	bl	8001310 <UART_EndRxTransfer>
 8001432:	2308      	movs	r3, #8
 8001434:	2001      	movs	r0, #1
 8001436:	6463      	str	r3, [r4, #68]	; 0x44
 8001438:	f884 5040 	strb.w	r5, [r4, #64]	; 0x40
 800143c:	b003      	add	sp, #12
 800143e:	bdf0      	pop	{r4, r5, r6, r7, pc}
 8001440:	2003      	movs	r0, #3
 8001442:	e7fb      	b.n	800143c <UART_WaitOnFlagUntilTimeout.constprop.0+0x5c>

08001444 <HAL_UART_Init>:
 8001444:	b510      	push	{r4, lr}
 8001446:	4604      	mov	r4, r0
 8001448:	b348      	cbz	r0, 800149e <HAL_UART_Init+0x5a>
 800144a:	f890 3041 	ldrb.w	r3, [r0, #65]	; 0x41
 800144e:	f003 02ff 	and.w	r2, r3, #255	; 0xff
 8001452:	b91b      	cbnz	r3, 800145c <HAL_UART_Init+0x18>
 8001454:	f880 2040 	strb.w	r2, [r0, #64]	; 0x40
 8001458:	f7ff f84a 	bl	80004f0 <HAL_UART_MspInit>
 800145c:	2324      	movs	r3, #36	; 0x24
 800145e:	6822      	ldr	r2, [r4, #0]
 8001460:	f884 3041 	strb.w	r3, [r4, #65]	; 0x41
 8001464:	68d3      	ldr	r3, [r2, #12]
 8001466:	4620      	mov	r0, r4
 8001468:	f423 5300 	bic.w	r3, r3, #8192	; 0x2000
 800146c:	60d3      	str	r3, [r2, #12]
 800146e:	f7ff ff7d 	bl	800136c <UART_SetConfig>
 8001472:	6823      	ldr	r3, [r4, #0]
 8001474:	2000      	movs	r0, #0
 8001476:	691a      	ldr	r2, [r3, #16]
 8001478:	f422 4290 	bic.w	r2, r2, #18432	; 0x4800
 800147c:	611a      	str	r2, [r3, #16]
 800147e:	695a      	ldr	r2, [r3, #20]
 8001480:	f022 022a 	bic.w	r2, r2, #42	; 0x2a
 8001484:	615a      	str	r2, [r3, #20]
 8001486:	68da      	ldr	r2, [r3, #12]
 8001488:	f442 5200 	orr.w	r2, r2, #8192	; 0x2000
 800148c:	60da      	str	r2, [r3, #12]
 800148e:	2320      	movs	r3, #32
 8001490:	6460      	str	r0, [r4, #68]	; 0x44
 8001492:	f884 3041 	strb.w	r3, [r4, #65]	; 0x41
 8001496:	f884 3042 	strb.w	r3, [r4, #66]	; 0x42
 800149a:	6360      	str	r0, [r4, #52]	; 0x34
 800149c:	bd10      	pop	{r4, pc}
 800149e:	2001      	movs	r0, #1
 80014a0:	e7fc      	b.n	800149c <HAL_UART_Init+0x58>

080014a2 <HAL_UART_Transmit>:
 80014a2:	e92d 43f8 	stmdb	sp!, {r3, r4, r5, r6, r7, r8, r9, lr}
 80014a6:	4699      	mov	r9, r3
 80014a8:	f890 3041 	ldrb.w	r3, [r0, #65]	; 0x41
 80014ac:	4604      	mov	r4, r0
 80014ae:	2b20      	cmp	r3, #32
 80014b0:	460e      	mov	r6, r1
 80014b2:	4617      	mov	r7, r2
 80014b4:	d13f      	bne.n	8001536 <HAL_UART_Transmit+0x94>
 80014b6:	2900      	cmp	r1, #0
 80014b8:	d03f      	beq.n	800153a <HAL_UART_Transmit+0x98>
 80014ba:	2a00      	cmp	r2, #0
 80014bc:	d03d      	beq.n	800153a <HAL_UART_Transmit+0x98>
 80014be:	2321      	movs	r3, #33	; 0x21
 80014c0:	2500      	movs	r5, #0
 80014c2:	6445      	str	r5, [r0, #68]	; 0x44
 80014c4:	f880 3041 	strb.w	r3, [r0, #65]	; 0x41
 80014c8:	f7ff f8f4 	bl	80006b4 <HAL_GetTick>
 80014cc:	68a3      	ldr	r3, [r4, #8]
 80014ce:	4680      	mov	r8, r0
 80014d0:	f5b3 5f80 	cmp.w	r3, #4096	; 0x1000
 80014d4:	84a7      	strh	r7, [r4, #36]	; 0x24
 80014d6:	84e7      	strh	r7, [r4, #38]	; 0x26
 80014d8:	d103      	bne.n	80014e2 <HAL_UART_Transmit+0x40>
 80014da:	6923      	ldr	r3, [r4, #16]
 80014dc:	b90b      	cbnz	r3, 80014e2 <HAL_UART_Transmit+0x40>
 80014de:	4635      	mov	r5, r6
 80014e0:	461e      	mov	r6, r3
 80014e2:	8ce3      	ldrh	r3, [r4, #38]	; 0x26
 80014e4:	b29b      	uxth	r3, r3
 80014e6:	b95b      	cbnz	r3, 8001500 <HAL_UART_Transmit+0x5e>
 80014e8:	464b      	mov	r3, r9
 80014ea:	4642      	mov	r2, r8
 80014ec:	2140      	movs	r1, #64	; 0x40
 80014ee:	4620      	mov	r0, r4
 80014f0:	f7ff ff76 	bl	80013e0 <UART_WaitOnFlagUntilTimeout.constprop.0>
 80014f4:	2320      	movs	r3, #32
 80014f6:	f884 3041 	strb.w	r3, [r4, #65]	; 0x41
 80014fa:	b958      	cbnz	r0, 8001514 <HAL_UART_Transmit+0x72>
 80014fc:	e8bd 83f8 	ldmia.w	sp!, {r3, r4, r5, r6, r7, r8, r9, pc}
 8001500:	464b      	mov	r3, r9
 8001502:	4642      	mov	r2, r8
 8001504:	2180      	movs	r1, #128	; 0x80
 8001506:	4620      	mov	r0, r4
 8001508:	f7ff ff6a 	bl	80013e0 <UART_WaitOnFlagUntilTimeout.constprop.0>
 800150c:	b120      	cbz	r0, 8001518 <HAL_UART_Transmit+0x76>
 800150e:	2320      	movs	r3, #32
 8001510:	f884 3041 	strb.w	r3, [r4, #65]	; 0x41
 8001514:	2003      	movs	r0, #3
 8001516:	e7f1      	b.n	80014fc <HAL_UART_Transmit+0x5a>
 8001518:	6822      	ldr	r2, [r4, #0]
 800151a:	b94e      	cbnz	r6, 8001530 <HAL_UART_Transmit+0x8e>
 800151c:	f835 3b02 	ldrh.w	r3, [r5], #2
 8001520:	f3c3 0308 	ubfx	r3, r3, #0, #9
 8001524:	6053      	str	r3, [r2, #4]
 8001526:	8ce1      	ldrh	r1, [r4, #38]	; 0x26
 8001528:	3901      	subs	r1, #1
 800152a:	b289      	uxth	r1, r1
 800152c:	84e1      	strh	r1, [r4, #38]	; 0x26
 800152e:	e7d8      	b.n	80014e2 <HAL_UART_Transmit+0x40>
 8001530:	f816 3b01 	ldrb.w	r3, [r6], #1
 8001534:	e7f6      	b.n	8001524 <HAL_UART_Transmit+0x82>
 8001536:	2002      	movs	r0, #2
 8001538:	e7e0      	b.n	80014fc <HAL_UART_Transmit+0x5a>
 800153a:	2001      	movs	r0, #1
 800153c:	e7de      	b.n	80014fc <HAL_UART_Transmit+0x5a>

0800153e <HAL_UART_TxCpltCallback>:
 800153e:	4770      	bx	lr

08001540 <HAL_UART_ErrorCallback>:
 8001540:	4770      	bx	lr

08001542 <UART_DMAAbortOnError>:
 8001542:	b508      	push	{r3, lr}
 8001544:	2300      	movs	r3, #0
 8001546:	6a40      	ldr	r0, [r0, #36]	; 0x24
 8001548:	85c3      	strh	r3, [r0, #46]	; 0x2e
 800154a:	84c3      	strh	r3, [r0, #38]	; 0x26
 800154c:	f7ff fff8 	bl	8001540 <HAL_UART_ErrorCallback>
 8001550:	bd08      	pop	{r3, pc}

08001552 <HAL_UARTEx_RxEventCallback>:
 8001552:	4770      	bx	lr

08001554 <UART_Receive_IT>:
 8001554:	b513      	push	{r0, r1, r4, lr}
 8001556:	f890 3042 	ldrb.w	r3, [r0, #66]	; 0x42
 800155a:	2b22      	cmp	r3, #34	; 0x22
 800155c:	d154      	bne.n	8001608 <UART_Receive_IT+0xb4>
 800155e:	6881      	ldr	r1, [r0, #8]
 8001560:	6a83      	ldr	r3, [r0, #40]	; 0x28
 8001562:	f5b1 5f80 	cmp.w	r1, #4096	; 0x1000
 8001566:	6802      	ldr	r2, [r0, #0]
 8001568:	d13e      	bne.n	80015e8 <UART_Receive_IT+0x94>
 800156a:	6901      	ldr	r1, [r0, #16]
 800156c:	2900      	cmp	r1, #0
 800156e:	d13e      	bne.n	80015ee <UART_Receive_IT+0x9a>
 8001570:	6852      	ldr	r2, [r2, #4]
 8001572:	f3c2 0208 	ubfx	r2, r2, #0, #9
 8001576:	f823 2b02 	strh.w	r2, [r3], #2
 800157a:	8dc4      	ldrh	r4, [r0, #46]	; 0x2e
 800157c:	6283      	str	r3, [r0, #40]	; 0x28
 800157e:	3c01      	subs	r4, #1
 8001580:	b2a4      	uxth	r4, r4
 8001582:	85c4      	strh	r4, [r0, #46]	; 0x2e
 8001584:	2c00      	cmp	r4, #0
 8001586:	d12d      	bne.n	80015e4 <UART_Receive_IT+0x90>
 8001588:	6803      	ldr	r3, [r0, #0]
 800158a:	68da      	ldr	r2, [r3, #12]
 800158c:	f022 0220 	bic.w	r2, r2, #32
 8001590:	60da      	str	r2, [r3, #12]
 8001592:	68da      	ldr	r2, [r3, #12]
 8001594:	f422 7280 	bic.w	r2, r2, #256	; 0x100
 8001598:	60da      	str	r2, [r3, #12]
 800159a:	695a      	ldr	r2, [r3, #20]
 800159c:	f022 0201 	bic.w	r2, r2, #1
 80015a0:	615a      	str	r2, [r3, #20]
 80015a2:	2320      	movs	r3, #32
 80015a4:	f880 3042 	strb.w	r3, [r0, #66]	; 0x42
 80015a8:	6344      	str	r4, [r0, #52]	; 0x34
 80015aa:	6b03      	ldr	r3, [r0, #48]	; 0x30
 80015ac:	2b01      	cmp	r3, #1
 80015ae:	6803      	ldr	r3, [r0, #0]
 80015b0:	d127      	bne.n	8001602 <UART_Receive_IT+0xae>
 80015b2:	6304      	str	r4, [r0, #48]	; 0x30
 80015b4:	f103 020c 	add.w	r2, r3, #12
 80015b8:	e852 2f00 	ldrex	r2, [r2]
 80015bc:	f022 0210 	bic.w	r2, r2, #16
 80015c0:	f103 040c 	add.w	r4, r3, #12
 80015c4:	e844 2100 	strex	r1, r2, [r4]
 80015c8:	2900      	cmp	r1, #0
 80015ca:	d1f3      	bne.n	80015b4 <UART_Receive_IT+0x60>
 80015cc:	681a      	ldr	r2, [r3, #0]
 80015ce:	06d2      	lsls	r2, r2, #27
 80015d0:	d505      	bpl.n	80015de <UART_Receive_IT+0x8a>
 80015d2:	9101      	str	r1, [sp, #4]
 80015d4:	681a      	ldr	r2, [r3, #0]
 80015d6:	9201      	str	r2, [sp, #4]
 80015d8:	685b      	ldr	r3, [r3, #4]
 80015da:	9301      	str	r3, [sp, #4]
 80015dc:	9b01      	ldr	r3, [sp, #4]
 80015de:	8d81      	ldrh	r1, [r0, #44]	; 0x2c
 80015e0:	f7ff ffb7 	bl	8001552 <HAL_UARTEx_RxEventCallback>
 80015e4:	2000      	movs	r0, #0
 80015e6:	e010      	b.n	800160a <UART_Receive_IT+0xb6>
 80015e8:	b939      	cbnz	r1, 80015fa <UART_Receive_IT+0xa6>
 80015ea:	6901      	ldr	r1, [r0, #16]
 80015ec:	b929      	cbnz	r1, 80015fa <UART_Receive_IT+0xa6>
 80015ee:	6852      	ldr	r2, [r2, #4]
 80015f0:	b2d2      	uxtb	r2, r2
 80015f2:	701a      	strb	r2, [r3, #0]
 80015f4:	6a83      	ldr	r3, [r0, #40]	; 0x28
 80015f6:	3301      	adds	r3, #1
 80015f8:	e7bf      	b.n	800157a <UART_Receive_IT+0x26>
 80015fa:	6852      	ldr	r2, [r2, #4]
 80015fc:	f002 027f 	and.w	r2, r2, #127	; 0x7f
 8001600:	e7f7      	b.n	80015f2 <UART_Receive_IT+0x9e>
 8001602:	f7fe fe27 	bl	8000254 <HAL_UART_RxCpltCallback>
 8001606:	e7ed      	b.n	80015e4 <UART_Receive_IT+0x90>
 8001608:	2002      	movs	r0, #2
 800160a:	b002      	add	sp, #8
 800160c:	bd10      	pop	{r4, pc}
	...

08001610 <HAL_UART_IRQHandler>:
 8001610:	6803      	ldr	r3, [r0, #0]
 8001612:	b537      	push	{r0, r1, r2, r4, r5, lr}
 8001614:	681a      	ldr	r2, [r3, #0]
 8001616:	4604      	mov	r4, r0
 8001618:	f012 0f0f 	tst.w	r2, #15
 800161c:	68d9      	ldr	r1, [r3, #12]
 800161e:	695d      	ldr	r5, [r3, #20]
 8001620:	d108      	bne.n	8001634 <HAL_UART_IRQHandler+0x24>
 8001622:	0695      	lsls	r5, r2, #26
 8001624:	d568      	bpl.n	80016f8 <HAL_UART_IRQHandler+0xe8>
 8001626:	068d      	lsls	r5, r1, #26
 8001628:	d566      	bpl.n	80016f8 <HAL_UART_IRQHandler+0xe8>
 800162a:	b003      	add	sp, #12
 800162c:	e8bd 4030 	ldmia.w	sp!, {r4, r5, lr}
 8001630:	f7ff bf90 	b.w	8001554 <UART_Receive_IT>
 8001634:	f005 0001 	and.w	r0, r5, #1
 8001638:	f401 7590 	and.w	r5, r1, #288	; 0x120
 800163c:	4305      	orrs	r5, r0
 800163e:	d05b      	beq.n	80016f8 <HAL_UART_IRQHandler+0xe8>
 8001640:	07d5      	lsls	r5, r2, #31
 8001642:	d505      	bpl.n	8001650 <HAL_UART_IRQHandler+0x40>
 8001644:	05cb      	lsls	r3, r1, #23
 8001646:	bf42      	ittt	mi
 8001648:	6c63      	ldrmi	r3, [r4, #68]	; 0x44
 800164a:	f043 0301 	orrmi.w	r3, r3, #1
 800164e:	6463      	strmi	r3, [r4, #68]	; 0x44
 8001650:	0755      	lsls	r5, r2, #29
 8001652:	d504      	bpl.n	800165e <HAL_UART_IRQHandler+0x4e>
 8001654:	b118      	cbz	r0, 800165e <HAL_UART_IRQHandler+0x4e>
 8001656:	6c63      	ldr	r3, [r4, #68]	; 0x44
 8001658:	f043 0302 	orr.w	r3, r3, #2
 800165c:	6463      	str	r3, [r4, #68]	; 0x44
 800165e:	0793      	lsls	r3, r2, #30
 8001660:	d504      	bpl.n	800166c <HAL_UART_IRQHandler+0x5c>
 8001662:	b118      	cbz	r0, 800166c <HAL_UART_IRQHandler+0x5c>
 8001664:	6c63      	ldr	r3, [r4, #68]	; 0x44
 8001666:	f043 0304 	orr.w	r3, r3, #4
 800166a:	6463      	str	r3, [r4, #68]	; 0x44
 800166c:	0715      	lsls	r5, r2, #28
 800166e:	d507      	bpl.n	8001680 <HAL_UART_IRQHandler+0x70>
 8001670:	f001 0320 	and.w	r3, r1, #32
 8001674:	4303      	orrs	r3, r0
 8001676:	bf1e      	ittt	ne
 8001678:	6c63      	ldrne	r3, [r4, #68]	; 0x44
 800167a:	f043 0308 	orrne.w	r3, r3, #8
 800167e:	6463      	strne	r3, [r4, #68]	; 0x44
 8001680:	6c63      	ldr	r3, [r4, #68]	; 0x44
 8001682:	2b00      	cmp	r3, #0
 8001684:	d032      	beq.n	80016ec <HAL_UART_IRQHandler+0xdc>
 8001686:	0690      	lsls	r0, r2, #26
 8001688:	d504      	bpl.n	8001694 <HAL_UART_IRQHandler+0x84>
 800168a:	068a      	lsls	r2, r1, #26
 800168c:	d502      	bpl.n	8001694 <HAL_UART_IRQHandler+0x84>
 800168e:	4620      	mov	r0, r4
 8001690:	f7ff ff60 	bl	8001554 <UART_Receive_IT>
 8001694:	6823      	ldr	r3, [r4, #0]
 8001696:	4620      	mov	r0, r4
 8001698:	695b      	ldr	r3, [r3, #20]
 800169a:	6c65      	ldr	r5, [r4, #68]	; 0x44
 800169c:	f003 0340 	and.w	r3, r3, #64	; 0x40
 80016a0:	f005 0508 	and.w	r5, r5, #8
 80016a4:	431d      	orrs	r5, r3
 80016a6:	d023      	beq.n	80016f0 <HAL_UART_IRQHandler+0xe0>
 80016a8:	f7ff fe32 	bl	8001310 <UART_EndRxTransfer>
 80016ac:	6822      	ldr	r2, [r4, #0]
 80016ae:	6953      	ldr	r3, [r2, #20]
 80016b0:	065b      	lsls	r3, r3, #25
 80016b2:	d518      	bpl.n	80016e6 <HAL_UART_IRQHandler+0xd6>
 80016b4:	f102 0314 	add.w	r3, r2, #20
 80016b8:	e853 3f00 	ldrex	r3, [r3]
 80016bc:	f023 0340 	bic.w	r3, r3, #64	; 0x40
 80016c0:	f102 0014 	add.w	r0, r2, #20
 80016c4:	e840 3100 	strex	r1, r3, [r0]
 80016c8:	2900      	cmp	r1, #0
 80016ca:	d1f3      	bne.n	80016b4 <HAL_UART_IRQHandler+0xa4>
 80016cc:	6be0      	ldr	r0, [r4, #60]	; 0x3c
 80016ce:	b150      	cbz	r0, 80016e6 <HAL_UART_IRQHandler+0xd6>
 80016d0:	4b73      	ldr	r3, [pc, #460]	; (80018a0 <HAL_UART_IRQHandler+0x290>)
 80016d2:	6343      	str	r3, [r0, #52]	; 0x34
 80016d4:	f7ff f87e 	bl	80007d4 <HAL_DMA_Abort_IT>
 80016d8:	b140      	cbz	r0, 80016ec <HAL_UART_IRQHandler+0xdc>
 80016da:	6be0      	ldr	r0, [r4, #60]	; 0x3c
 80016dc:	6b43      	ldr	r3, [r0, #52]	; 0x34
 80016de:	b003      	add	sp, #12
 80016e0:	e8bd 4030 	ldmia.w	sp!, {r4, r5, lr}
 80016e4:	4718      	bx	r3
 80016e6:	4620      	mov	r0, r4
 80016e8:	f7ff ff2a 	bl	8001540 <HAL_UART_ErrorCallback>
 80016ec:	b003      	add	sp, #12
 80016ee:	bd30      	pop	{r4, r5, pc}
 80016f0:	f7ff ff26 	bl	8001540 <HAL_UART_ErrorCallback>
 80016f4:	6465      	str	r5, [r4, #68]	; 0x44
 80016f6:	e7f9      	b.n	80016ec <HAL_UART_IRQHandler+0xdc>
 80016f8:	6b20      	ldr	r0, [r4, #48]	; 0x30
 80016fa:	2801      	cmp	r0, #1
 80016fc:	f040 8094 	bne.w	8001828 <HAL_UART_IRQHandler+0x218>
 8001700:	06d5      	lsls	r5, r2, #27
 8001702:	f140 8091 	bpl.w	8001828 <HAL_UART_IRQHandler+0x218>
 8001706:	06c8      	lsls	r0, r1, #27
 8001708:	f140 808e 	bpl.w	8001828 <HAL_UART_IRQHandler+0x218>
 800170c:	2200      	movs	r2, #0
 800170e:	9201      	str	r2, [sp, #4]
 8001710:	681a      	ldr	r2, [r3, #0]
 8001712:	9201      	str	r2, [sp, #4]
 8001714:	685a      	ldr	r2, [r3, #4]
 8001716:	9201      	str	r2, [sp, #4]
 8001718:	9a01      	ldr	r2, [sp, #4]
 800171a:	695a      	ldr	r2, [r3, #20]
 800171c:	0655      	lsls	r5, r2, #25
 800171e:	d54d      	bpl.n	80017bc <HAL_UART_IRQHandler+0x1ac>
 8001720:	6be1      	ldr	r1, [r4, #60]	; 0x3c
 8001722:	680a      	ldr	r2, [r1, #0]
 8001724:	6852      	ldr	r2, [r2, #4]
 8001726:	b292      	uxth	r2, r2
 8001728:	2a00      	cmp	r2, #0
 800172a:	d0df      	beq.n	80016ec <HAL_UART_IRQHandler+0xdc>
 800172c:	8da0      	ldrh	r0, [r4, #44]	; 0x2c
 800172e:	4290      	cmp	r0, r2
 8001730:	d9dc      	bls.n	80016ec <HAL_UART_IRQHandler+0xdc>
 8001732:	85e2      	strh	r2, [r4, #46]	; 0x2e
 8001734:	698a      	ldr	r2, [r1, #24]
 8001736:	2a20      	cmp	r2, #32
 8001738:	d036      	beq.n	80017a8 <HAL_UART_IRQHandler+0x198>
 800173a:	f103 020c 	add.w	r2, r3, #12
 800173e:	e852 2f00 	ldrex	r2, [r2]
 8001742:	f422 7280 	bic.w	r2, r2, #256	; 0x100
 8001746:	f103 000c 	add.w	r0, r3, #12
 800174a:	e840 2100 	strex	r1, r2, [r0]
 800174e:	2900      	cmp	r1, #0
 8001750:	d1f3      	bne.n	800173a <HAL_UART_IRQHandler+0x12a>
 8001752:	f103 0214 	add.w	r2, r3, #20
 8001756:	e852 2f00 	ldrex	r2, [r2]
 800175a:	f022 0201 	bic.w	r2, r2, #1
 800175e:	f103 0014 	add.w	r0, r3, #20
 8001762:	e840 2100 	strex	r1, r2, [r0]
 8001766:	2900      	cmp	r1, #0
 8001768:	d1f3      	bne.n	8001752 <HAL_UART_IRQHandler+0x142>
 800176a:	f103 0214 	add.w	r2, r3, #20
 800176e:	e852 2f00 	ldrex	r2, [r2]
 8001772:	f022 0240 	bic.w	r2, r2, #64	; 0x40
 8001776:	f103 0014 	add.w	r0, r3, #20
 800177a:	e840 2100 	strex	r1, r2, [r0]
 800177e:	2900      	cmp	r1, #0
 8001780:	d1f3      	bne.n	800176a <HAL_UART_IRQHandler+0x15a>
 8001782:	2220      	movs	r2, #32
 8001784:	f884 2042 	strb.w	r2, [r4, #66]	; 0x42
 8001788:	6321      	str	r1, [r4, #48]	; 0x30
 800178a:	f103 020c 	add.w	r2, r3, #12
 800178e:	e852 2f00 	ldrex	r2, [r2]
 8001792:	f022 0210 	bic.w	r2, r2, #16
 8001796:	f103 000c 	add.w	r0, r3, #12
 800179a:	e840 2100 	strex	r1, r2, [r0]
 800179e:	2900      	cmp	r1, #0
 80017a0:	d1f3      	bne.n	800178a <HAL_UART_IRQHandler+0x17a>
 80017a2:	6be0      	ldr	r0, [r4, #60]	; 0x3c
 80017a4:	f7fe fff4 	bl	8000790 <HAL_DMA_Abort>
 80017a8:	2302      	movs	r3, #2
 80017aa:	6363      	str	r3, [r4, #52]	; 0x34
 80017ac:	8de3      	ldrh	r3, [r4, #46]	; 0x2e
 80017ae:	8da1      	ldrh	r1, [r4, #44]	; 0x2c
 80017b0:	1ac9      	subs	r1, r1, r3
 80017b2:	b289      	uxth	r1, r1
 80017b4:	4620      	mov	r0, r4
 80017b6:	f7ff fecc 	bl	8001552 <HAL_UARTEx_RxEventCallback>
 80017ba:	e797      	b.n	80016ec <HAL_UART_IRQHandler+0xdc>
 80017bc:	8de1      	ldrh	r1, [r4, #46]	; 0x2e
 80017be:	b28a      	uxth	r2, r1
 80017c0:	8de1      	ldrh	r1, [r4, #46]	; 0x2e
 80017c2:	b289      	uxth	r1, r1
 80017c4:	2900      	cmp	r1, #0
 80017c6:	d091      	beq.n	80016ec <HAL_UART_IRQHandler+0xdc>
 80017c8:	8da1      	ldrh	r1, [r4, #44]	; 0x2c
 80017ca:	1a89      	subs	r1, r1, r2
 80017cc:	b289      	uxth	r1, r1
 80017ce:	2900      	cmp	r1, #0
 80017d0:	d08c      	beq.n	80016ec <HAL_UART_IRQHandler+0xdc>
 80017d2:	f103 020c 	add.w	r2, r3, #12
 80017d6:	e852 2f00 	ldrex	r2, [r2]
 80017da:	f422 7290 	bic.w	r2, r2, #288	; 0x120
 80017de:	f103 050c 	add.w	r5, r3, #12
 80017e2:	e845 2000 	strex	r0, r2, [r5]
 80017e6:	2800      	cmp	r0, #0
 80017e8:	d1f3      	bne.n	80017d2 <HAL_UART_IRQHandler+0x1c2>
 80017ea:	f103 0214 	add.w	r2, r3, #20
 80017ee:	e852 2f00 	ldrex	r2, [r2]
 80017f2:	f022 0201 	bic.w	r2, r2, #1
 80017f6:	f103 0514 	add.w	r5, r3, #20
 80017fa:	e845 2000 	strex	r0, r2, [r5]
 80017fe:	2800      	cmp	r0, #0
 8001800:	d1f3      	bne.n	80017ea <HAL_UART_IRQHandler+0x1da>
 8001802:	2220      	movs	r2, #32
 8001804:	f884 2042 	strb.w	r2, [r4, #66]	; 0x42
 8001808:	6320      	str	r0, [r4, #48]	; 0x30
 800180a:	f103 020c 	add.w	r2, r3, #12
 800180e:	e852 2f00 	ldrex	r2, [r2]
 8001812:	f022 0210 	bic.w	r2, r2, #16
 8001816:	f103 050c 	add.w	r5, r3, #12
 800181a:	e845 2000 	strex	r0, r2, [r5]
 800181e:	2800      	cmp	r0, #0
 8001820:	d1f3      	bne.n	800180a <HAL_UART_IRQHandler+0x1fa>
 8001822:	2302      	movs	r3, #2
 8001824:	6363      	str	r3, [r4, #52]	; 0x34
 8001826:	e7c5      	b.n	80017b4 <HAL_UART_IRQHandler+0x1a4>
 8001828:	0610      	lsls	r0, r2, #24
 800182a:	d528      	bpl.n	800187e <HAL_UART_IRQHandler+0x26e>
 800182c:	060d      	lsls	r5, r1, #24
 800182e:	d526      	bpl.n	800187e <HAL_UART_IRQHandler+0x26e>
 8001830:	f894 2041 	ldrb.w	r2, [r4, #65]	; 0x41
 8001834:	2a21      	cmp	r2, #33	; 0x21
 8001836:	f47f af59 	bne.w	80016ec <HAL_UART_IRQHandler+0xdc>
 800183a:	68a1      	ldr	r1, [r4, #8]
 800183c:	6a22      	ldr	r2, [r4, #32]
 800183e:	f5b1 5f80 	cmp.w	r1, #4096	; 0x1000
 8001842:	d117      	bne.n	8001874 <HAL_UART_IRQHandler+0x264>
 8001844:	6921      	ldr	r1, [r4, #16]
 8001846:	b9a9      	cbnz	r1, 8001874 <HAL_UART_IRQHandler+0x264>
 8001848:	f832 1b02 	ldrh.w	r1, [r2], #2
 800184c:	f3c1 0108 	ubfx	r1, r1, #0, #9
 8001850:	6059      	str	r1, [r3, #4]
 8001852:	6222      	str	r2, [r4, #32]
 8001854:	8ce2      	ldrh	r2, [r4, #38]	; 0x26
 8001856:	3a01      	subs	r2, #1
 8001858:	b292      	uxth	r2, r2
 800185a:	84e2      	strh	r2, [r4, #38]	; 0x26
 800185c:	2a00      	cmp	r2, #0
 800185e:	f47f af45 	bne.w	80016ec <HAL_UART_IRQHandler+0xdc>
 8001862:	68da      	ldr	r2, [r3, #12]
 8001864:	f022 0280 	bic.w	r2, r2, #128	; 0x80
 8001868:	60da      	str	r2, [r3, #12]
 800186a:	68da      	ldr	r2, [r3, #12]
 800186c:	f042 0240 	orr.w	r2, r2, #64	; 0x40
 8001870:	60da      	str	r2, [r3, #12]
 8001872:	e73b      	b.n	80016ec <HAL_UART_IRQHandler+0xdc>
 8001874:	1c51      	adds	r1, r2, #1
 8001876:	6221      	str	r1, [r4, #32]
 8001878:	7812      	ldrb	r2, [r2, #0]
 800187a:	605a      	str	r2, [r3, #4]
 800187c:	e7ea      	b.n	8001854 <HAL_UART_IRQHandler+0x244>
 800187e:	0650      	lsls	r0, r2, #25
 8001880:	f57f af34 	bpl.w	80016ec <HAL_UART_IRQHandler+0xdc>
 8001884:	064a      	lsls	r2, r1, #25
 8001886:	f57f af31 	bpl.w	80016ec <HAL_UART_IRQHandler+0xdc>
 800188a:	68da      	ldr	r2, [r3, #12]
 800188c:	4620      	mov	r0, r4
 800188e:	f022 0240 	bic.w	r2, r2, #64	; 0x40
 8001892:	60da      	str	r2, [r3, #12]
 8001894:	2320      	movs	r3, #32
 8001896:	f884 3041 	strb.w	r3, [r4, #65]	; 0x41
 800189a:	f7ff fe50 	bl	800153e <HAL_UART_TxCpltCallback>
 800189e:	e725      	b.n	80016ec <HAL_UART_IRQHandler+0xdc>
 80018a0:	08001543 	.word	0x08001543

080018a4 <UART_Start_Receive_IT>:
 80018a4:	2300      	movs	r3, #0
 80018a6:	85c2      	strh	r2, [r0, #46]	; 0x2e
 80018a8:	6443      	str	r3, [r0, #68]	; 0x44
 80018aa:	2322      	movs	r3, #34	; 0x22
 80018ac:	8582      	strh	r2, [r0, #44]	; 0x2c
 80018ae:	6902      	ldr	r2, [r0, #16]
 80018b0:	f880 3042 	strb.w	r3, [r0, #66]	; 0x42
 80018b4:	6281      	str	r1, [r0, #40]	; 0x28
 80018b6:	6803      	ldr	r3, [r0, #0]
 80018b8:	b11a      	cbz	r2, 80018c2 <UART_Start_Receive_IT+0x1e>
 80018ba:	68da      	ldr	r2, [r3, #12]
 80018bc:	f442 7280 	orr.w	r2, r2, #256	; 0x100
 80018c0:	60da      	str	r2, [r3, #12]
 80018c2:	695a      	ldr	r2, [r3, #20]
 80018c4:	2000      	movs	r0, #0
 80018c6:	f042 0201 	orr.w	r2, r2, #1
 80018ca:	615a      	str	r2, [r3, #20]
 80018cc:	68da      	ldr	r2, [r3, #12]
 80018ce:	f042 0220 	orr.w	r2, r2, #32
 80018d2:	60da      	str	r2, [r3, #12]
 80018d4:	4770      	bx	lr

080018d6 <HAL_UART_Receive_IT>:
 80018d6:	b470      	push	{r4, r5, r6}
 80018d8:	f890 6042 	ldrb.w	r6, [r0, #66]	; 0x42
 80018dc:	2e20      	cmp	r6, #32
 80018de:	d106      	bne.n	80018ee <HAL_UART_Receive_IT+0x18>
 80018e0:	b141      	cbz	r1, 80018f4 <HAL_UART_Receive_IT+0x1e>
 80018e2:	b13a      	cbz	r2, 80018f4 <HAL_UART_Receive_IT+0x1e>
 80018e4:	2400      	movs	r4, #0
 80018e6:	6304      	str	r4, [r0, #48]	; 0x30
 80018e8:	bc70      	pop	{r4, r5, r6}
 80018ea:	f7ff bfdb 	b.w	80018a4 <UART_Start_Receive_IT>
 80018ee:	2002      	movs	r0, #2
 80018f0:	bc70      	pop	{r4, r5, r6}
 80018f2:	4770      	bx	lr
 80018f4:	2001      	movs	r0, #1
 80018f6:	e7fb      	b.n	80018f0 <HAL_UART_Receive_IT+0x1a>

080018f8 <__errno>:
 80018f8:	4b01      	ldr	r3, [pc, #4]	; (8001900 <__errno+0x8>)
 80018fa:	6818      	ldr	r0, [r3, #0]
 80018fc:	4770      	bx	lr
 80018fe:	bf00      	nop
 8001900:	2000000c 	.word	0x2000000c

08001904 <__libc_init_array>:
 8001904:	b570      	push	{r4, r5, r6, lr}
 8001906:	2600      	movs	r6, #0
 8001908:	4d0c      	ldr	r5, [pc, #48]	; (800193c <__libc_init_array+0x38>)
 800190a:	4c0d      	ldr	r4, [pc, #52]	; (8001940 <__libc_init_array+0x3c>)
 800190c:	1b64      	subs	r4, r4, r5
 800190e:	10a4      	asrs	r4, r4, #2
 8001910:	42a6      	cmp	r6, r4
 8001912:	d109      	bne.n	8001928 <__libc_init_array+0x24>
 8001914:	f000 fc6c 	bl	80021f0 <_init>
 8001918:	2600      	movs	r6, #0
 800191a:	4d0a      	ldr	r5, [pc, #40]	; (8001944 <__libc_init_array+0x40>)
 800191c:	4c0a      	ldr	r4, [pc, #40]	; (8001948 <__libc_init_array+0x44>)
 800191e:	1b64      	subs	r4, r4, r5
 8001920:	10a4      	asrs	r4, r4, #2
 8001922:	42a6      	cmp	r6, r4
 8001924:	d105      	bne.n	8001932 <__libc_init_array+0x2e>
 8001926:	bd70      	pop	{r4, r5, r6, pc}
 8001928:	f855 3b04 	ldr.w	r3, [r5], #4
 800192c:	4798      	blx	r3
 800192e:	3601      	adds	r6, #1
 8001930:	e7ee      	b.n	8001910 <__libc_init_array+0xc>
 8001932:	f855 3b04 	ldr.w	r3, [r5], #4
 8001936:	4798      	blx	r3
 8001938:	3601      	adds	r6, #1
 800193a:	e7f2      	b.n	8001922 <__libc_init_array+0x1e>
 800193c:	0800226c 	.word	0x0800226c
 8001940:	0800226c 	.word	0x0800226c
 8001944:	0800226c 	.word	0x0800226c
 8001948:	08002270 	.word	0x08002270

0800194c <malloc>:
 800194c:	4b02      	ldr	r3, [pc, #8]	; (8001958 <malloc+0xc>)
 800194e:	4601      	mov	r1, r0
 8001950:	6818      	ldr	r0, [r3, #0]
 8001952:	f000 b85f 	b.w	8001a14 <_malloc_r>
 8001956:	bf00      	nop
 8001958:	2000000c 	.word	0x2000000c

0800195c <free>:
 800195c:	4b02      	ldr	r3, [pc, #8]	; (8001968 <free+0xc>)
 800195e:	4601      	mov	r1, r0
 8001960:	6818      	ldr	r0, [r3, #0]
 8001962:	f000 b80b 	b.w	800197c <_free_r>
 8001966:	bf00      	nop
 8001968:	2000000c 	.word	0x2000000c

0800196c <memset>:
 800196c:	4603      	mov	r3, r0
 800196e:	4402      	add	r2, r0
 8001970:	4293      	cmp	r3, r2
 8001972:	d100      	bne.n	8001976 <memset+0xa>
 8001974:	4770      	bx	lr
 8001976:	f803 1b01 	strb.w	r1, [r3], #1
 800197a:	e7f9      	b.n	8001970 <memset+0x4>

0800197c <_free_r>:
 800197c:	b538      	push	{r3, r4, r5, lr}
 800197e:	4605      	mov	r5, r0
 8001980:	2900      	cmp	r1, #0
 8001982:	d043      	beq.n	8001a0c <_free_r+0x90>
 8001984:	f851 3c04 	ldr.w	r3, [r1, #-4]
 8001988:	1f0c      	subs	r4, r1, #4
 800198a:	2b00      	cmp	r3, #0
 800198c:	bfb8      	it	lt
 800198e:	18e4      	addlt	r4, r4, r3
 8001990:	f000 f8ca 	bl	8001b28 <__malloc_lock>
 8001994:	4a1e      	ldr	r2, [pc, #120]	; (8001a10 <_free_r+0x94>)
 8001996:	6813      	ldr	r3, [r2, #0]
 8001998:	4610      	mov	r0, r2
 800199a:	b933      	cbnz	r3, 80019aa <_free_r+0x2e>
 800199c:	6063      	str	r3, [r4, #4]
 800199e:	6014      	str	r4, [r2, #0]
 80019a0:	4628      	mov	r0, r5
 80019a2:	e8bd 4038 	ldmia.w	sp!, {r3, r4, r5, lr}
 80019a6:	f000 b8c5 	b.w	8001b34 <__malloc_unlock>
 80019aa:	42a3      	cmp	r3, r4
 80019ac:	d90a      	bls.n	80019c4 <_free_r+0x48>
 80019ae:	6821      	ldr	r1, [r4, #0]
 80019b0:	1862      	adds	r2, r4, r1
 80019b2:	4293      	cmp	r3, r2
 80019b4:	bf01      	itttt	eq
 80019b6:	681a      	ldreq	r2, [r3, #0]
 80019b8:	685b      	ldreq	r3, [r3, #4]
 80019ba:	1852      	addeq	r2, r2, r1
 80019bc:	6022      	streq	r2, [r4, #0]
 80019be:	6063      	str	r3, [r4, #4]
 80019c0:	6004      	str	r4, [r0, #0]
 80019c2:	e7ed      	b.n	80019a0 <_free_r+0x24>
 80019c4:	461a      	mov	r2, r3
 80019c6:	685b      	ldr	r3, [r3, #4]
 80019c8:	b10b      	cbz	r3, 80019ce <_free_r+0x52>
 80019ca:	42a3      	cmp	r3, r4
 80019cc:	d9fa      	bls.n	80019c4 <_free_r+0x48>
 80019ce:	6811      	ldr	r1, [r2, #0]
 80019d0:	1850      	adds	r0, r2, r1
 80019d2:	42a0      	cmp	r0, r4
 80019d4:	d10b      	bne.n	80019ee <_free_r+0x72>
 80019d6:	6820      	ldr	r0, [r4, #0]
 80019d8:	4401      	add	r1, r0
 80019da:	1850      	adds	r0, r2, r1
 80019dc:	4283      	cmp	r3, r0
 80019de:	6011      	str	r1, [r2, #0]
 80019e0:	d1de      	bne.n	80019a0 <_free_r+0x24>
 80019e2:	6818      	ldr	r0, [r3, #0]
 80019e4:	685b      	ldr	r3, [r3, #4]
 80019e6:	4401      	add	r1, r0
 80019e8:	6011      	str	r1, [r2, #0]
 80019ea:	6053      	str	r3, [r2, #4]
 80019ec:	e7d8      	b.n	80019a0 <_free_r+0x24>
 80019ee:	d902      	bls.n	80019f6 <_free_r+0x7a>
 80019f0:	230c      	movs	r3, #12
 80019f2:	602b      	str	r3, [r5, #0]
 80019f4:	e7d4      	b.n	80019a0 <_free_r+0x24>
 80019f6:	6820      	ldr	r0, [r4, #0]
 80019f8:	1821      	adds	r1, r4, r0
 80019fa:	428b      	cmp	r3, r1
 80019fc:	bf01      	itttt	eq
 80019fe:	6819      	ldreq	r1, [r3, #0]
 8001a00:	685b      	ldreq	r3, [r3, #4]
 8001a02:	1809      	addeq	r1, r1, r0
 8001a04:	6021      	streq	r1, [r4, #0]
 8001a06:	6063      	str	r3, [r4, #4]
 8001a08:	6054      	str	r4, [r2, #4]
 8001a0a:	e7c9      	b.n	80019a0 <_free_r+0x24>
 8001a0c:	bd38      	pop	{r3, r4, r5, pc}
 8001a0e:	bf00      	nop
 8001a10:	200000a0 	.word	0x200000a0

08001a14 <_malloc_r>:
 8001a14:	b5f8      	push	{r3, r4, r5, r6, r7, lr}
 8001a16:	1ccd      	adds	r5, r1, #3
 8001a18:	f025 0503 	bic.w	r5, r5, #3
 8001a1c:	3508      	adds	r5, #8
 8001a1e:	2d0c      	cmp	r5, #12
 8001a20:	bf38      	it	cc
 8001a22:	250c      	movcc	r5, #12
 8001a24:	2d00      	cmp	r5, #0
 8001a26:	4606      	mov	r6, r0
 8001a28:	db01      	blt.n	8001a2e <_malloc_r+0x1a>
 8001a2a:	42a9      	cmp	r1, r5
 8001a2c:	d903      	bls.n	8001a36 <_malloc_r+0x22>
 8001a2e:	230c      	movs	r3, #12
 8001a30:	6033      	str	r3, [r6, #0]
 8001a32:	2000      	movs	r0, #0
 8001a34:	bdf8      	pop	{r3, r4, r5, r6, r7, pc}
 8001a36:	f000 f877 	bl	8001b28 <__malloc_lock>
 8001a3a:	4921      	ldr	r1, [pc, #132]	; (8001ac0 <_malloc_r+0xac>)
 8001a3c:	680a      	ldr	r2, [r1, #0]
 8001a3e:	4614      	mov	r4, r2
 8001a40:	b99c      	cbnz	r4, 8001a6a <_malloc_r+0x56>
 8001a42:	4f20      	ldr	r7, [pc, #128]	; (8001ac4 <_malloc_r+0xb0>)
 8001a44:	683b      	ldr	r3, [r7, #0]
 8001a46:	b923      	cbnz	r3, 8001a52 <_malloc_r+0x3e>
 8001a48:	4621      	mov	r1, r4
 8001a4a:	4630      	mov	r0, r6
 8001a4c:	f000 f83c 	bl	8001ac8 <_sbrk_r>
 8001a50:	6038      	str	r0, [r7, #0]
 8001a52:	4629      	mov	r1, r5
 8001a54:	4630      	mov	r0, r6
 8001a56:	f000 f837 	bl	8001ac8 <_sbrk_r>
 8001a5a:	1c43      	adds	r3, r0, #1
 8001a5c:	d123      	bne.n	8001aa6 <_malloc_r+0x92>
 8001a5e:	230c      	movs	r3, #12
 8001a60:	4630      	mov	r0, r6
 8001a62:	6033      	str	r3, [r6, #0]
 8001a64:	f000 f866 	bl	8001b34 <__malloc_unlock>
 8001a68:	e7e3      	b.n	8001a32 <_malloc_r+0x1e>
 8001a6a:	6823      	ldr	r3, [r4, #0]
 8001a6c:	1b5b      	subs	r3, r3, r5
 8001a6e:	d417      	bmi.n	8001aa0 <_malloc_r+0x8c>
 8001a70:	2b0b      	cmp	r3, #11
 8001a72:	d903      	bls.n	8001a7c <_malloc_r+0x68>
 8001a74:	6023      	str	r3, [r4, #0]
 8001a76:	441c      	add	r4, r3
 8001a78:	6025      	str	r5, [r4, #0]
 8001a7a:	e004      	b.n	8001a86 <_malloc_r+0x72>
 8001a7c:	6863      	ldr	r3, [r4, #4]
 8001a7e:	42a2      	cmp	r2, r4
 8001a80:	bf0c      	ite	eq
 8001a82:	600b      	streq	r3, [r1, #0]
 8001a84:	6053      	strne	r3, [r2, #4]
 8001a86:	4630      	mov	r0, r6
 8001a88:	f000 f854 	bl	8001b34 <__malloc_unlock>
 8001a8c:	f104 000b 	add.w	r0, r4, #11
 8001a90:	1d23      	adds	r3, r4, #4
 8001a92:	f020 0007 	bic.w	r0, r0, #7
 8001a96:	1ac2      	subs	r2, r0, r3
 8001a98:	d0cc      	beq.n	8001a34 <_malloc_r+0x20>
 8001a9a:	1a1b      	subs	r3, r3, r0
 8001a9c:	50a3      	str	r3, [r4, r2]
 8001a9e:	e7c9      	b.n	8001a34 <_malloc_r+0x20>
 8001aa0:	4622      	mov	r2, r4
 8001aa2:	6864      	ldr	r4, [r4, #4]
 8001aa4:	e7cc      	b.n	8001a40 <_malloc_r+0x2c>
 8001aa6:	1cc4      	adds	r4, r0, #3
 8001aa8:	f024 0403 	bic.w	r4, r4, #3
 8001aac:	42a0      	cmp	r0, r4
 8001aae:	d0e3      	beq.n	8001a78 <_malloc_r+0x64>
 8001ab0:	1a21      	subs	r1, r4, r0
 8001ab2:	4630      	mov	r0, r6
 8001ab4:	f000 f808 	bl	8001ac8 <_sbrk_r>
 8001ab8:	3001      	adds	r0, #1
 8001aba:	d1dd      	bne.n	8001a78 <_malloc_r+0x64>
 8001abc:	e7cf      	b.n	8001a5e <_malloc_r+0x4a>
 8001abe:	bf00      	nop
 8001ac0:	200000a0 	.word	0x200000a0
 8001ac4:	200000a4 	.word	0x200000a4

08001ac8 <_sbrk_r>:
 8001ac8:	b538      	push	{r3, r4, r5, lr}
 8001aca:	2300      	movs	r3, #0
 8001acc:	4d05      	ldr	r5, [pc, #20]	; (8001ae4 <_sbrk_r+0x1c>)
 8001ace:	4604      	mov	r4, r0
 8001ad0:	4608      	mov	r0, r1
 8001ad2:	602b      	str	r3, [r5, #0]
 8001ad4:	f7fe fd64 	bl	80005a0 <_sbrk>
 8001ad8:	1c43      	adds	r3, r0, #1
 8001ada:	d102      	bne.n	8001ae2 <_sbrk_r+0x1a>
 8001adc:	682b      	ldr	r3, [r5, #0]
 8001ade:	b103      	cbz	r3, 8001ae2 <_sbrk_r+0x1a>
 8001ae0:	6023      	str	r3, [r4, #0]
 8001ae2:	bd38      	pop	{r3, r4, r5, pc}
 8001ae4:	20000150 	.word	0x20000150

08001ae8 <siprintf>:
 8001ae8:	b40e      	push	{r1, r2, r3}
 8001aea:	f06f 4100 	mvn.w	r1, #2147483648	; 0x80000000
 8001aee:	b500      	push	{lr}
 8001af0:	b09c      	sub	sp, #112	; 0x70
 8001af2:	ab1d      	add	r3, sp, #116	; 0x74
 8001af4:	9002      	str	r0, [sp, #8]
 8001af6:	9006      	str	r0, [sp, #24]
 8001af8:	9107      	str	r1, [sp, #28]
 8001afa:	9104      	str	r1, [sp, #16]
 8001afc:	4808      	ldr	r0, [pc, #32]	; (8001b20 <siprintf+0x38>)
 8001afe:	4909      	ldr	r1, [pc, #36]	; (8001b24 <siprintf+0x3c>)
 8001b00:	f853 2b04 	ldr.w	r2, [r3], #4
 8001b04:	9105      	str	r1, [sp, #20]
 8001b06:	6800      	ldr	r0, [r0, #0]
 8001b08:	a902      	add	r1, sp, #8
 8001b0a:	9301      	str	r3, [sp, #4]
 8001b0c:	f000 f874 	bl	8001bf8 <_svfiprintf_r>
 8001b10:	2200      	movs	r2, #0
 8001b12:	9b02      	ldr	r3, [sp, #8]
 8001b14:	701a      	strb	r2, [r3, #0]
 8001b16:	b01c      	add	sp, #112	; 0x70
 8001b18:	f85d eb04 	ldr.w	lr, [sp], #4
 8001b1c:	b003      	add	sp, #12
 8001b1e:	4770      	bx	lr
 8001b20:	2000000c 	.word	0x2000000c
 8001b24:	ffff0208 	.word	0xffff0208

08001b28 <__malloc_lock>:
 8001b28:	4801      	ldr	r0, [pc, #4]	; (8001b30 <__malloc_lock+0x8>)
 8001b2a:	f000 bafb 	b.w	8002124 <__retarget_lock_acquire_recursive>
 8001b2e:	bf00      	nop
 8001b30:	20000158 	.word	0x20000158

08001b34 <__malloc_unlock>:
 8001b34:	4801      	ldr	r0, [pc, #4]	; (8001b3c <__malloc_unlock+0x8>)
 8001b36:	f000 baf6 	b.w	8002126 <__retarget_lock_release_recursive>
 8001b3a:	bf00      	nop
 8001b3c:	20000158 	.word	0x20000158

08001b40 <__ssputs_r>:
 8001b40:	e92d 47f0 	stmdb	sp!, {r4, r5, r6, r7, r8, r9, sl, lr}
 8001b44:	688e      	ldr	r6, [r1, #8]
 8001b46:	4682      	mov	sl, r0
 8001b48:	429e      	cmp	r6, r3
 8001b4a:	460c      	mov	r4, r1
 8001b4c:	4690      	mov	r8, r2
 8001b4e:	461f      	mov	r7, r3
 8001b50:	d838      	bhi.n	8001bc4 <__ssputs_r+0x84>
 8001b52:	898a      	ldrh	r2, [r1, #12]
 8001b54:	f412 6f90 	tst.w	r2, #1152	; 0x480
 8001b58:	d032      	beq.n	8001bc0 <__ssputs_r+0x80>
 8001b5a:	6825      	ldr	r5, [r4, #0]
 8001b5c:	6909      	ldr	r1, [r1, #16]
 8001b5e:	3301      	adds	r3, #1
 8001b60:	eba5 0901 	sub.w	r9, r5, r1
 8001b64:	6965      	ldr	r5, [r4, #20]
 8001b66:	444b      	add	r3, r9
 8001b68:	eb05 0545 	add.w	r5, r5, r5, lsl #1
 8001b6c:	eb05 75d5 	add.w	r5, r5, r5, lsr #31
 8001b70:	106d      	asrs	r5, r5, #1
 8001b72:	429d      	cmp	r5, r3
 8001b74:	bf38      	it	cc
 8001b76:	461d      	movcc	r5, r3
 8001b78:	0553      	lsls	r3, r2, #21
 8001b7a:	d531      	bpl.n	8001be0 <__ssputs_r+0xa0>
 8001b7c:	4629      	mov	r1, r5
 8001b7e:	f7ff ff49 	bl	8001a14 <_malloc_r>
 8001b82:	4606      	mov	r6, r0
 8001b84:	b950      	cbnz	r0, 8001b9c <__ssputs_r+0x5c>
 8001b86:	230c      	movs	r3, #12
 8001b88:	f04f 30ff 	mov.w	r0, #4294967295
 8001b8c:	f8ca 3000 	str.w	r3, [sl]
 8001b90:	89a3      	ldrh	r3, [r4, #12]
 8001b92:	f043 0340 	orr.w	r3, r3, #64	; 0x40
 8001b96:	81a3      	strh	r3, [r4, #12]
 8001b98:	e8bd 87f0 	ldmia.w	sp!, {r4, r5, r6, r7, r8, r9, sl, pc}
 8001b9c:	464a      	mov	r2, r9
 8001b9e:	6921      	ldr	r1, [r4, #16]
 8001ba0:	f000 fad0 	bl	8002144 <memcpy>
 8001ba4:	89a3      	ldrh	r3, [r4, #12]
 8001ba6:	f423 6390 	bic.w	r3, r3, #1152	; 0x480
 8001baa:	f043 0380 	orr.w	r3, r3, #128	; 0x80
 8001bae:	81a3      	strh	r3, [r4, #12]
 8001bb0:	6126      	str	r6, [r4, #16]
 8001bb2:	444e      	add	r6, r9
 8001bb4:	6026      	str	r6, [r4, #0]
 8001bb6:	463e      	mov	r6, r7
 8001bb8:	6165      	str	r5, [r4, #20]
 8001bba:	eba5 0509 	sub.w	r5, r5, r9
 8001bbe:	60a5      	str	r5, [r4, #8]
 8001bc0:	42be      	cmp	r6, r7
 8001bc2:	d900      	bls.n	8001bc6 <__ssputs_r+0x86>
 8001bc4:	463e      	mov	r6, r7
 8001bc6:	4632      	mov	r2, r6
 8001bc8:	4641      	mov	r1, r8
 8001bca:	6820      	ldr	r0, [r4, #0]
 8001bcc:	f000 fac8 	bl	8002160 <memmove>
 8001bd0:	68a3      	ldr	r3, [r4, #8]
 8001bd2:	6822      	ldr	r2, [r4, #0]
 8001bd4:	1b9b      	subs	r3, r3, r6
 8001bd6:	4432      	add	r2, r6
 8001bd8:	2000      	movs	r0, #0
 8001bda:	60a3      	str	r3, [r4, #8]
 8001bdc:	6022      	str	r2, [r4, #0]
 8001bde:	e7db      	b.n	8001b98 <__ssputs_r+0x58>
 8001be0:	462a      	mov	r2, r5
 8001be2:	f000 fad7 	bl	8002194 <_realloc_r>
 8001be6:	4606      	mov	r6, r0
 8001be8:	2800      	cmp	r0, #0
 8001bea:	d1e1      	bne.n	8001bb0 <__ssputs_r+0x70>
 8001bec:	4650      	mov	r0, sl
 8001bee:	6921      	ldr	r1, [r4, #16]
 8001bf0:	f7ff fec4 	bl	800197c <_free_r>
 8001bf4:	e7c7      	b.n	8001b86 <__ssputs_r+0x46>
	...

08001bf8 <_svfiprintf_r>:
 8001bf8:	e92d 4ff0 	stmdb	sp!, {r4, r5, r6, r7, r8, r9, sl, fp, lr}
 8001bfc:	4698      	mov	r8, r3
 8001bfe:	898b      	ldrh	r3, [r1, #12]
 8001c00:	4607      	mov	r7, r0
 8001c02:	061b      	lsls	r3, r3, #24
 8001c04:	460d      	mov	r5, r1
 8001c06:	4614      	mov	r4, r2
 8001c08:	b09d      	sub	sp, #116	; 0x74
 8001c0a:	d50e      	bpl.n	8001c2a <_svfiprintf_r+0x32>
 8001c0c:	690b      	ldr	r3, [r1, #16]
 8001c0e:	b963      	cbnz	r3, 8001c2a <_svfiprintf_r+0x32>
 8001c10:	2140      	movs	r1, #64	; 0x40
 8001c12:	f7ff feff 	bl	8001a14 <_malloc_r>
 8001c16:	6028      	str	r0, [r5, #0]
 8001c18:	6128      	str	r0, [r5, #16]
 8001c1a:	b920      	cbnz	r0, 8001c26 <_svfiprintf_r+0x2e>
 8001c1c:	230c      	movs	r3, #12
 8001c1e:	603b      	str	r3, [r7, #0]
 8001c20:	f04f 30ff 	mov.w	r0, #4294967295
 8001c24:	e0d1      	b.n	8001dca <_svfiprintf_r+0x1d2>
 8001c26:	2340      	movs	r3, #64	; 0x40
 8001c28:	616b      	str	r3, [r5, #20]
 8001c2a:	2300      	movs	r3, #0
 8001c2c:	9309      	str	r3, [sp, #36]	; 0x24
 8001c2e:	2320      	movs	r3, #32
 8001c30:	f88d 3029 	strb.w	r3, [sp, #41]	; 0x29
 8001c34:	2330      	movs	r3, #48	; 0x30
 8001c36:	f04f 0901 	mov.w	r9, #1
 8001c3a:	f8cd 800c 	str.w	r8, [sp, #12]
 8001c3e:	f8df 81a4 	ldr.w	r8, [pc, #420]	; 8001de4 <_svfiprintf_r+0x1ec>
 8001c42:	f88d 302a 	strb.w	r3, [sp, #42]	; 0x2a
 8001c46:	4623      	mov	r3, r4
 8001c48:	469a      	mov	sl, r3
 8001c4a:	f813 2b01 	ldrb.w	r2, [r3], #1
 8001c4e:	b10a      	cbz	r2, 8001c54 <_svfiprintf_r+0x5c>
 8001c50:	2a25      	cmp	r2, #37	; 0x25
 8001c52:	d1f9      	bne.n	8001c48 <_svfiprintf_r+0x50>
 8001c54:	ebba 0b04 	subs.w	fp, sl, r4
 8001c58:	d00b      	beq.n	8001c72 <_svfiprintf_r+0x7a>
 8001c5a:	465b      	mov	r3, fp
 8001c5c:	4622      	mov	r2, r4
 8001c5e:	4629      	mov	r1, r5
 8001c60:	4638      	mov	r0, r7
 8001c62:	f7ff ff6d 	bl	8001b40 <__ssputs_r>
 8001c66:	3001      	adds	r0, #1
 8001c68:	f000 80aa 	beq.w	8001dc0 <_svfiprintf_r+0x1c8>
 8001c6c:	9a09      	ldr	r2, [sp, #36]	; 0x24
 8001c6e:	445a      	add	r2, fp
 8001c70:	9209      	str	r2, [sp, #36]	; 0x24
 8001c72:	f89a 3000 	ldrb.w	r3, [sl]
 8001c76:	2b00      	cmp	r3, #0
 8001c78:	f000 80a2 	beq.w	8001dc0 <_svfiprintf_r+0x1c8>
 8001c7c:	2300      	movs	r3, #0
 8001c7e:	f04f 32ff 	mov.w	r2, #4294967295
 8001c82:	e9cd 2305 	strd	r2, r3, [sp, #20]
 8001c86:	f10a 0a01 	add.w	sl, sl, #1
 8001c8a:	9304      	str	r3, [sp, #16]
 8001c8c:	9307      	str	r3, [sp, #28]
 8001c8e:	f88d 3053 	strb.w	r3, [sp, #83]	; 0x53
 8001c92:	931a      	str	r3, [sp, #104]	; 0x68
 8001c94:	4654      	mov	r4, sl
 8001c96:	2205      	movs	r2, #5
 8001c98:	f814 1b01 	ldrb.w	r1, [r4], #1
 8001c9c:	4851      	ldr	r0, [pc, #324]	; (8001de4 <_svfiprintf_r+0x1ec>)
 8001c9e:	f000 fa43 	bl	8002128 <memchr>
 8001ca2:	9a04      	ldr	r2, [sp, #16]
 8001ca4:	b9d8      	cbnz	r0, 8001cde <_svfiprintf_r+0xe6>
 8001ca6:	06d0      	lsls	r0, r2, #27
 8001ca8:	bf44      	itt	mi
 8001caa:	2320      	movmi	r3, #32
 8001cac:	f88d 3053 	strbmi.w	r3, [sp, #83]	; 0x53
 8001cb0:	0711      	lsls	r1, r2, #28
 8001cb2:	bf44      	itt	mi
 8001cb4:	232b      	movmi	r3, #43	; 0x2b
 8001cb6:	f88d 3053 	strbmi.w	r3, [sp, #83]	; 0x53
 8001cba:	f89a 3000 	ldrb.w	r3, [sl]
 8001cbe:	2b2a      	cmp	r3, #42	; 0x2a
 8001cc0:	d015      	beq.n	8001cee <_svfiprintf_r+0xf6>
 8001cc2:	4654      	mov	r4, sl
 8001cc4:	2000      	movs	r0, #0
 8001cc6:	f04f 0c0a 	mov.w	ip, #10
 8001cca:	9a07      	ldr	r2, [sp, #28]
 8001ccc:	4621      	mov	r1, r4
 8001cce:	f811 3b01 	ldrb.w	r3, [r1], #1
 8001cd2:	3b30      	subs	r3, #48	; 0x30
 8001cd4:	2b09      	cmp	r3, #9
 8001cd6:	d94e      	bls.n	8001d76 <_svfiprintf_r+0x17e>
 8001cd8:	b1b0      	cbz	r0, 8001d08 <_svfiprintf_r+0x110>
 8001cda:	9207      	str	r2, [sp, #28]
 8001cdc:	e014      	b.n	8001d08 <_svfiprintf_r+0x110>
 8001cde:	eba0 0308 	sub.w	r3, r0, r8
 8001ce2:	fa09 f303 	lsl.w	r3, r9, r3
 8001ce6:	4313      	orrs	r3, r2
 8001ce8:	46a2      	mov	sl, r4
 8001cea:	9304      	str	r3, [sp, #16]
 8001cec:	e7d2      	b.n	8001c94 <_svfiprintf_r+0x9c>
 8001cee:	9b03      	ldr	r3, [sp, #12]
 8001cf0:	1d19      	adds	r1, r3, #4
 8001cf2:	681b      	ldr	r3, [r3, #0]
 8001cf4:	9103      	str	r1, [sp, #12]
 8001cf6:	2b00      	cmp	r3, #0
 8001cf8:	bfbb      	ittet	lt
 8001cfa:	425b      	neglt	r3, r3
 8001cfc:	f042 0202 	orrlt.w	r2, r2, #2
 8001d00:	9307      	strge	r3, [sp, #28]
 8001d02:	9307      	strlt	r3, [sp, #28]
 8001d04:	bfb8      	it	lt
 8001d06:	9204      	strlt	r2, [sp, #16]
 8001d08:	7823      	ldrb	r3, [r4, #0]
 8001d0a:	2b2e      	cmp	r3, #46	; 0x2e
 8001d0c:	d10c      	bne.n	8001d28 <_svfiprintf_r+0x130>
 8001d0e:	7863      	ldrb	r3, [r4, #1]
 8001d10:	2b2a      	cmp	r3, #42	; 0x2a
 8001d12:	d135      	bne.n	8001d80 <_svfiprintf_r+0x188>
 8001d14:	9b03      	ldr	r3, [sp, #12]
 8001d16:	3402      	adds	r4, #2
 8001d18:	1d1a      	adds	r2, r3, #4
 8001d1a:	681b      	ldr	r3, [r3, #0]
 8001d1c:	9203      	str	r2, [sp, #12]
 8001d1e:	2b00      	cmp	r3, #0
 8001d20:	bfb8      	it	lt
 8001d22:	f04f 33ff 	movlt.w	r3, #4294967295
 8001d26:	9305      	str	r3, [sp, #20]
 8001d28:	f8df a0c8 	ldr.w	sl, [pc, #200]	; 8001df4 <_svfiprintf_r+0x1fc>
 8001d2c:	2203      	movs	r2, #3
 8001d2e:	4650      	mov	r0, sl
 8001d30:	7821      	ldrb	r1, [r4, #0]
 8001d32:	f000 f9f9 	bl	8002128 <memchr>
 8001d36:	b140      	cbz	r0, 8001d4a <_svfiprintf_r+0x152>
 8001d38:	2340      	movs	r3, #64	; 0x40
 8001d3a:	eba0 000a 	sub.w	r0, r0, sl
 8001d3e:	fa03 f000 	lsl.w	r0, r3, r0
 8001d42:	9b04      	ldr	r3, [sp, #16]
 8001d44:	3401      	adds	r4, #1
 8001d46:	4303      	orrs	r3, r0
 8001d48:	9304      	str	r3, [sp, #16]
 8001d4a:	f814 1b01 	ldrb.w	r1, [r4], #1
 8001d4e:	2206      	movs	r2, #6
 8001d50:	4825      	ldr	r0, [pc, #148]	; (8001de8 <_svfiprintf_r+0x1f0>)
 8001d52:	f88d 1028 	strb.w	r1, [sp, #40]	; 0x28
 8001d56:	f000 f9e7 	bl	8002128 <memchr>
 8001d5a:	2800      	cmp	r0, #0
 8001d5c:	d038      	beq.n	8001dd0 <_svfiprintf_r+0x1d8>
 8001d5e:	4b23      	ldr	r3, [pc, #140]	; (8001dec <_svfiprintf_r+0x1f4>)
 8001d60:	bb1b      	cbnz	r3, 8001daa <_svfiprintf_r+0x1b2>
 8001d62:	9b03      	ldr	r3, [sp, #12]
 8001d64:	3307      	adds	r3, #7
 8001d66:	f023 0307 	bic.w	r3, r3, #7
 8001d6a:	3308      	adds	r3, #8
 8001d6c:	9303      	str	r3, [sp, #12]
 8001d6e:	9b09      	ldr	r3, [sp, #36]	; 0x24
 8001d70:	4433      	add	r3, r6
 8001d72:	9309      	str	r3, [sp, #36]	; 0x24
 8001d74:	e767      	b.n	8001c46 <_svfiprintf_r+0x4e>
 8001d76:	460c      	mov	r4, r1
 8001d78:	2001      	movs	r0, #1
 8001d7a:	fb0c 3202 	mla	r2, ip, r2, r3
 8001d7e:	e7a5      	b.n	8001ccc <_svfiprintf_r+0xd4>
 8001d80:	2300      	movs	r3, #0
 8001d82:	f04f 0c0a 	mov.w	ip, #10
 8001d86:	4619      	mov	r1, r3
 8001d88:	3401      	adds	r4, #1
 8001d8a:	9305      	str	r3, [sp, #20]
 8001d8c:	4620      	mov	r0, r4
 8001d8e:	f810 2b01 	ldrb.w	r2, [r0], #1
 8001d92:	3a30      	subs	r2, #48	; 0x30
 8001d94:	2a09      	cmp	r2, #9
 8001d96:	d903      	bls.n	8001da0 <_svfiprintf_r+0x1a8>
 8001d98:	2b00      	cmp	r3, #0
 8001d9a:	d0c5      	beq.n	8001d28 <_svfiprintf_r+0x130>
 8001d9c:	9105      	str	r1, [sp, #20]
 8001d9e:	e7c3      	b.n	8001d28 <_svfiprintf_r+0x130>
 8001da0:	4604      	mov	r4, r0
 8001da2:	2301      	movs	r3, #1
 8001da4:	fb0c 2101 	mla	r1, ip, r1, r2
 8001da8:	e7f0      	b.n	8001d8c <_svfiprintf_r+0x194>
 8001daa:	ab03      	add	r3, sp, #12
 8001dac:	9300      	str	r3, [sp, #0]
 8001dae:	462a      	mov	r2, r5
 8001db0:	4638      	mov	r0, r7
 8001db2:	4b0f      	ldr	r3, [pc, #60]	; (8001df0 <_svfiprintf_r+0x1f8>)
 8001db4:	a904      	add	r1, sp, #16
 8001db6:	f3af 8000 	nop.w
 8001dba:	1c42      	adds	r2, r0, #1
 8001dbc:	4606      	mov	r6, r0
 8001dbe:	d1d6      	bne.n	8001d6e <_svfiprintf_r+0x176>
 8001dc0:	89ab      	ldrh	r3, [r5, #12]
 8001dc2:	065b      	lsls	r3, r3, #25
 8001dc4:	f53f af2c 	bmi.w	8001c20 <_svfiprintf_r+0x28>
 8001dc8:	9809      	ldr	r0, [sp, #36]	; 0x24
 8001dca:	b01d      	add	sp, #116	; 0x74
 8001dcc:	e8bd 8ff0 	ldmia.w	sp!, {r4, r5, r6, r7, r8, r9, sl, fp, pc}
 8001dd0:	ab03      	add	r3, sp, #12
 8001dd2:	9300      	str	r3, [sp, #0]
 8001dd4:	462a      	mov	r2, r5
 8001dd6:	4638      	mov	r0, r7
 8001dd8:	4b05      	ldr	r3, [pc, #20]	; (8001df0 <_svfiprintf_r+0x1f8>)
 8001dda:	a904      	add	r1, sp, #16
 8001ddc:	f000 f87c 	bl	8001ed8 <_printf_i>
 8001de0:	e7eb      	b.n	8001dba <_svfiprintf_r+0x1c2>
 8001de2:	bf00      	nop
 8001de4:	08002238 	.word	0x08002238
 8001de8:	08002242 	.word	0x08002242
 8001dec:	00000000 	.word	0x00000000
 8001df0:	08001b41 	.word	0x08001b41
 8001df4:	0800223e 	.word	0x0800223e

08001df8 <_printf_common>:
 8001df8:	e92d 47f0 	stmdb	sp!, {r4, r5, r6, r7, r8, r9, sl, lr}
 8001dfc:	4616      	mov	r6, r2
 8001dfe:	4699      	mov	r9, r3
 8001e00:	688a      	ldr	r2, [r1, #8]
 8001e02:	690b      	ldr	r3, [r1, #16]
 8001e04:	4607      	mov	r7, r0
 8001e06:	4293      	cmp	r3, r2
 8001e08:	bfb8      	it	lt
 8001e0a:	4613      	movlt	r3, r2
 8001e0c:	6033      	str	r3, [r6, #0]
 8001e0e:	f891 2043 	ldrb.w	r2, [r1, #67]	; 0x43
 8001e12:	460c      	mov	r4, r1
 8001e14:	f8dd 8020 	ldr.w	r8, [sp, #32]
 8001e18:	b10a      	cbz	r2, 8001e1e <_printf_common+0x26>
 8001e1a:	3301      	adds	r3, #1
 8001e1c:	6033      	str	r3, [r6, #0]
 8001e1e:	6823      	ldr	r3, [r4, #0]
 8001e20:	0699      	lsls	r1, r3, #26
 8001e22:	bf42      	ittt	mi
 8001e24:	6833      	ldrmi	r3, [r6, #0]
 8001e26:	3302      	addmi	r3, #2
 8001e28:	6033      	strmi	r3, [r6, #0]
 8001e2a:	6825      	ldr	r5, [r4, #0]
 8001e2c:	f015 0506 	ands.w	r5, r5, #6
 8001e30:	d106      	bne.n	8001e40 <_printf_common+0x48>
 8001e32:	f104 0a19 	add.w	sl, r4, #25
 8001e36:	68e3      	ldr	r3, [r4, #12]
 8001e38:	6832      	ldr	r2, [r6, #0]
 8001e3a:	1a9b      	subs	r3, r3, r2
 8001e3c:	42ab      	cmp	r3, r5
 8001e3e:	dc28      	bgt.n	8001e92 <_printf_common+0x9a>
 8001e40:	f894 2043 	ldrb.w	r2, [r4, #67]	; 0x43
 8001e44:	1e13      	subs	r3, r2, #0
 8001e46:	6822      	ldr	r2, [r4, #0]
 8001e48:	bf18      	it	ne
 8001e4a:	2301      	movne	r3, #1
 8001e4c:	0692      	lsls	r2, r2, #26
 8001e4e:	d42d      	bmi.n	8001eac <_printf_common+0xb4>
 8001e50:	4649      	mov	r1, r9
 8001e52:	4638      	mov	r0, r7
 8001e54:	f104 0243 	add.w	r2, r4, #67	; 0x43
 8001e58:	47c0      	blx	r8
 8001e5a:	3001      	adds	r0, #1
 8001e5c:	d020      	beq.n	8001ea0 <_printf_common+0xa8>
 8001e5e:	6823      	ldr	r3, [r4, #0]
 8001e60:	68e5      	ldr	r5, [r4, #12]
 8001e62:	f003 0306 	and.w	r3, r3, #6
 8001e66:	2b04      	cmp	r3, #4
 8001e68:	bf18      	it	ne
 8001e6a:	2500      	movne	r5, #0
 8001e6c:	6832      	ldr	r2, [r6, #0]
 8001e6e:	f04f 0600 	mov.w	r6, #0
 8001e72:	68a3      	ldr	r3, [r4, #8]
 8001e74:	bf08      	it	eq
 8001e76:	1aad      	subeq	r5, r5, r2
 8001e78:	6922      	ldr	r2, [r4, #16]
 8001e7a:	bf08      	it	eq
 8001e7c:	ea25 75e5 	biceq.w	r5, r5, r5, asr #31
 8001e80:	4293      	cmp	r3, r2
 8001e82:	bfc4      	itt	gt
 8001e84:	1a9b      	subgt	r3, r3, r2
 8001e86:	18ed      	addgt	r5, r5, r3
 8001e88:	341a      	adds	r4, #26
 8001e8a:	42b5      	cmp	r5, r6
 8001e8c:	d11a      	bne.n	8001ec4 <_printf_common+0xcc>
 8001e8e:	2000      	movs	r0, #0
 8001e90:	e008      	b.n	8001ea4 <_printf_common+0xac>
 8001e92:	2301      	movs	r3, #1
 8001e94:	4652      	mov	r2, sl
 8001e96:	4649      	mov	r1, r9
 8001e98:	4638      	mov	r0, r7
 8001e9a:	47c0      	blx	r8
 8001e9c:	3001      	adds	r0, #1
 8001e9e:	d103      	bne.n	8001ea8 <_printf_common+0xb0>
 8001ea0:	f04f 30ff 	mov.w	r0, #4294967295
 8001ea4:	e8bd 87f0 	ldmia.w	sp!, {r4, r5, r6, r7, r8, r9, sl, pc}
 8001ea8:	3501      	adds	r5, #1
 8001eaa:	e7c4      	b.n	8001e36 <_printf_common+0x3e>
 8001eac:	2030      	movs	r0, #48	; 0x30
 8001eae:	18e1      	adds	r1, r4, r3
 8001eb0:	f881 0043 	strb.w	r0, [r1, #67]	; 0x43
 8001eb4:	1c5a      	adds	r2, r3, #1
 8001eb6:	f894 1045 	ldrb.w	r1, [r4, #69]	; 0x45
 8001eba:	4422      	add	r2, r4
 8001ebc:	3302      	adds	r3, #2
 8001ebe:	f882 1043 	strb.w	r1, [r2, #67]	; 0x43
 8001ec2:	e7c5      	b.n	8001e50 <_printf_common+0x58>
 8001ec4:	2301      	movs	r3, #1
 8001ec6:	4622      	mov	r2, r4
 8001ec8:	4649      	mov	r1, r9
 8001eca:	4638      	mov	r0, r7
 8001ecc:	47c0      	blx	r8
 8001ece:	3001      	adds	r0, #1
 8001ed0:	d0e6      	beq.n	8001ea0 <_printf_common+0xa8>
 8001ed2:	3601      	adds	r6, #1
 8001ed4:	e7d9      	b.n	8001e8a <_printf_common+0x92>
	...

08001ed8 <_printf_i>:
 8001ed8:	e92d 47ff 	stmdb	sp!, {r0, r1, r2, r3, r4, r5, r6, r7, r8, r9, sl, lr}
 8001edc:	460c      	mov	r4, r1
 8001ede:	7e27      	ldrb	r7, [r4, #24]
 8001ee0:	4691      	mov	r9, r2
 8001ee2:	2f78      	cmp	r7, #120	; 0x78
 8001ee4:	4680      	mov	r8, r0
 8001ee6:	469a      	mov	sl, r3
 8001ee8:	990c      	ldr	r1, [sp, #48]	; 0x30
 8001eea:	f104 0243 	add.w	r2, r4, #67	; 0x43
 8001eee:	d807      	bhi.n	8001f00 <_printf_i+0x28>
 8001ef0:	2f62      	cmp	r7, #98	; 0x62
 8001ef2:	d80a      	bhi.n	8001f0a <_printf_i+0x32>
 8001ef4:	2f00      	cmp	r7, #0
 8001ef6:	f000 80d9 	beq.w	80020ac <_printf_i+0x1d4>
 8001efa:	2f58      	cmp	r7, #88	; 0x58
 8001efc:	f000 80a4 	beq.w	8002048 <_printf_i+0x170>
 8001f00:	f104 0642 	add.w	r6, r4, #66	; 0x42
 8001f04:	f884 7042 	strb.w	r7, [r4, #66]	; 0x42
 8001f08:	e03a      	b.n	8001f80 <_printf_i+0xa8>
 8001f0a:	f1a7 0363 	sub.w	r3, r7, #99	; 0x63
 8001f0e:	2b15      	cmp	r3, #21
 8001f10:	d8f6      	bhi.n	8001f00 <_printf_i+0x28>
 8001f12:	a001      	add	r0, pc, #4	; (adr r0, 8001f18 <_printf_i+0x40>)
 8001f14:	f850 f023 	ldr.w	pc, [r0, r3, lsl #2]
 8001f18:	08001f71 	.word	0x08001f71
 8001f1c:	08001f85 	.word	0x08001f85
 8001f20:	08001f01 	.word	0x08001f01
 8001f24:	08001f01 	.word	0x08001f01
 8001f28:	08001f01 	.word	0x08001f01
 8001f2c:	08001f01 	.word	0x08001f01
 8001f30:	08001f85 	.word	0x08001f85
 8001f34:	08001f01 	.word	0x08001f01
 8001f38:	08001f01 	.word	0x08001f01
 8001f3c:	08001f01 	.word	0x08001f01
 8001f40:	08001f01 	.word	0x08001f01
 8001f44:	08002093 	.word	0x08002093
 8001f48:	08001fb5 	.word	0x08001fb5
 8001f4c:	08002075 	.word	0x08002075
 8001f50:	08001f01 	.word	0x08001f01
 8001f54:	08001f01 	.word	0x08001f01
 8001f58:	080020b5 	.word	0x080020b5
 8001f5c:	08001f01 	.word	0x08001f01
 8001f60:	08001fb5 	.word	0x08001fb5
 8001f64:	08001f01 	.word	0x08001f01
 8001f68:	08001f01 	.word	0x08001f01
 8001f6c:	0800207d 	.word	0x0800207d
 8001f70:	680b      	ldr	r3, [r1, #0]
 8001f72:	f104 0642 	add.w	r6, r4, #66	; 0x42
 8001f76:	1d1a      	adds	r2, r3, #4
 8001f78:	681b      	ldr	r3, [r3, #0]
 8001f7a:	600a      	str	r2, [r1, #0]
 8001f7c:	f884 3042 	strb.w	r3, [r4, #66]	; 0x42
 8001f80:	2301      	movs	r3, #1
 8001f82:	e0a4      	b.n	80020ce <_printf_i+0x1f6>
 8001f84:	6825      	ldr	r5, [r4, #0]
 8001f86:	6808      	ldr	r0, [r1, #0]
 8001f88:	062e      	lsls	r6, r5, #24
 8001f8a:	f100 0304 	add.w	r3, r0, #4
 8001f8e:	d50a      	bpl.n	8001fa6 <_printf_i+0xce>
 8001f90:	6805      	ldr	r5, [r0, #0]
 8001f92:	600b      	str	r3, [r1, #0]
 8001f94:	2d00      	cmp	r5, #0
 8001f96:	da03      	bge.n	8001fa0 <_printf_i+0xc8>
 8001f98:	232d      	movs	r3, #45	; 0x2d
 8001f9a:	426d      	negs	r5, r5
 8001f9c:	f884 3043 	strb.w	r3, [r4, #67]	; 0x43
 8001fa0:	230a      	movs	r3, #10
 8001fa2:	485e      	ldr	r0, [pc, #376]	; (800211c <_printf_i+0x244>)
 8001fa4:	e019      	b.n	8001fda <_printf_i+0x102>
 8001fa6:	f015 0f40 	tst.w	r5, #64	; 0x40
 8001faa:	6805      	ldr	r5, [r0, #0]
 8001fac:	600b      	str	r3, [r1, #0]
 8001fae:	bf18      	it	ne
 8001fb0:	b22d      	sxthne	r5, r5
 8001fb2:	e7ef      	b.n	8001f94 <_printf_i+0xbc>
 8001fb4:	680b      	ldr	r3, [r1, #0]
 8001fb6:	6825      	ldr	r5, [r4, #0]
 8001fb8:	1d18      	adds	r0, r3, #4
 8001fba:	6008      	str	r0, [r1, #0]
 8001fbc:	0628      	lsls	r0, r5, #24
 8001fbe:	d501      	bpl.n	8001fc4 <_printf_i+0xec>
 8001fc0:	681d      	ldr	r5, [r3, #0]
 8001fc2:	e002      	b.n	8001fca <_printf_i+0xf2>
 8001fc4:	0669      	lsls	r1, r5, #25
 8001fc6:	d5fb      	bpl.n	8001fc0 <_printf_i+0xe8>
 8001fc8:	881d      	ldrh	r5, [r3, #0]
 8001fca:	2f6f      	cmp	r7, #111	; 0x6f
 8001fcc:	bf0c      	ite	eq
 8001fce:	2308      	moveq	r3, #8
 8001fd0:	230a      	movne	r3, #10
 8001fd2:	4852      	ldr	r0, [pc, #328]	; (800211c <_printf_i+0x244>)
 8001fd4:	2100      	movs	r1, #0
 8001fd6:	f884 1043 	strb.w	r1, [r4, #67]	; 0x43
 8001fda:	6866      	ldr	r6, [r4, #4]
 8001fdc:	2e00      	cmp	r6, #0
 8001fde:	bfa8      	it	ge
 8001fe0:	6821      	ldrge	r1, [r4, #0]
 8001fe2:	60a6      	str	r6, [r4, #8]
 8001fe4:	bfa4      	itt	ge
 8001fe6:	f021 0104 	bicge.w	r1, r1, #4
 8001fea:	6021      	strge	r1, [r4, #0]
 8001fec:	b90d      	cbnz	r5, 8001ff2 <_printf_i+0x11a>
 8001fee:	2e00      	cmp	r6, #0
 8001ff0:	d04d      	beq.n	800208e <_printf_i+0x1b6>
 8001ff2:	4616      	mov	r6, r2
 8001ff4:	fbb5 f1f3 	udiv	r1, r5, r3
 8001ff8:	fb03 5711 	mls	r7, r3, r1, r5
 8001ffc:	5dc7      	ldrb	r7, [r0, r7]
 8001ffe:	f806 7d01 	strb.w	r7, [r6, #-1]!
 8002002:	462f      	mov	r7, r5
 8002004:	42bb      	cmp	r3, r7
 8002006:	460d      	mov	r5, r1
 8002008:	d9f4      	bls.n	8001ff4 <_printf_i+0x11c>
 800200a:	2b08      	cmp	r3, #8
 800200c:	d10b      	bne.n	8002026 <_printf_i+0x14e>
 800200e:	6823      	ldr	r3, [r4, #0]
 8002010:	07df      	lsls	r7, r3, #31
 8002012:	d508      	bpl.n	8002026 <_printf_i+0x14e>
 8002014:	6923      	ldr	r3, [r4, #16]
 8002016:	6861      	ldr	r1, [r4, #4]
 8002018:	4299      	cmp	r1, r3
 800201a:	bfde      	ittt	le
 800201c:	2330      	movle	r3, #48	; 0x30
 800201e:	f806 3c01 	strble.w	r3, [r6, #-1]
 8002022:	f106 36ff 	addle.w	r6, r6, #4294967295
 8002026:	1b92      	subs	r2, r2, r6
 8002028:	6122      	str	r2, [r4, #16]
 800202a:	464b      	mov	r3, r9
 800202c:	4621      	mov	r1, r4
 800202e:	4640      	mov	r0, r8
 8002030:	f8cd a000 	str.w	sl, [sp]
 8002034:	aa03      	add	r2, sp, #12
 8002036:	f7ff fedf 	bl	8001df8 <_printf_common>
 800203a:	3001      	adds	r0, #1
 800203c:	d14c      	bne.n	80020d8 <_printf_i+0x200>
 800203e:	f04f 30ff 	mov.w	r0, #4294967295
 8002042:	b004      	add	sp, #16
 8002044:	e8bd 87f0 	ldmia.w	sp!, {r4, r5, r6, r7, r8, r9, sl, pc}
 8002048:	4834      	ldr	r0, [pc, #208]	; (800211c <_printf_i+0x244>)
 800204a:	f884 7045 	strb.w	r7, [r4, #69]	; 0x45
 800204e:	680e      	ldr	r6, [r1, #0]
 8002050:	6823      	ldr	r3, [r4, #0]
 8002052:	f856 5b04 	ldr.w	r5, [r6], #4
 8002056:	061f      	lsls	r7, r3, #24
 8002058:	600e      	str	r6, [r1, #0]
 800205a:	d514      	bpl.n	8002086 <_printf_i+0x1ae>
 800205c:	07d9      	lsls	r1, r3, #31
 800205e:	bf44      	itt	mi
 8002060:	f043 0320 	orrmi.w	r3, r3, #32
 8002064:	6023      	strmi	r3, [r4, #0]
 8002066:	b91d      	cbnz	r5, 8002070 <_printf_i+0x198>
 8002068:	6823      	ldr	r3, [r4, #0]
 800206a:	f023 0320 	bic.w	r3, r3, #32
 800206e:	6023      	str	r3, [r4, #0]
 8002070:	2310      	movs	r3, #16
 8002072:	e7af      	b.n	8001fd4 <_printf_i+0xfc>
 8002074:	6823      	ldr	r3, [r4, #0]
 8002076:	f043 0320 	orr.w	r3, r3, #32
 800207a:	6023      	str	r3, [r4, #0]
 800207c:	2378      	movs	r3, #120	; 0x78
 800207e:	4828      	ldr	r0, [pc, #160]	; (8002120 <_printf_i+0x248>)
 8002080:	f884 3045 	strb.w	r3, [r4, #69]	; 0x45
 8002084:	e7e3      	b.n	800204e <_printf_i+0x176>
 8002086:	065e      	lsls	r6, r3, #25
 8002088:	bf48      	it	mi
 800208a:	b2ad      	uxthmi	r5, r5
 800208c:	e7e6      	b.n	800205c <_printf_i+0x184>
 800208e:	4616      	mov	r6, r2
 8002090:	e7bb      	b.n	800200a <_printf_i+0x132>
 8002092:	680b      	ldr	r3, [r1, #0]
 8002094:	6826      	ldr	r6, [r4, #0]
 8002096:	1d1d      	adds	r5, r3, #4
 8002098:	6960      	ldr	r0, [r4, #20]
 800209a:	600d      	str	r5, [r1, #0]
 800209c:	0635      	lsls	r5, r6, #24
 800209e:	681b      	ldr	r3, [r3, #0]
 80020a0:	d501      	bpl.n	80020a6 <_printf_i+0x1ce>
 80020a2:	6018      	str	r0, [r3, #0]
 80020a4:	e002      	b.n	80020ac <_printf_i+0x1d4>
 80020a6:	0671      	lsls	r1, r6, #25
 80020a8:	d5fb      	bpl.n	80020a2 <_printf_i+0x1ca>
 80020aa:	8018      	strh	r0, [r3, #0]
 80020ac:	2300      	movs	r3, #0
 80020ae:	4616      	mov	r6, r2
 80020b0:	6123      	str	r3, [r4, #16]
 80020b2:	e7ba      	b.n	800202a <_printf_i+0x152>
 80020b4:	680b      	ldr	r3, [r1, #0]
 80020b6:	1d1a      	adds	r2, r3, #4
 80020b8:	600a      	str	r2, [r1, #0]
 80020ba:	681e      	ldr	r6, [r3, #0]
 80020bc:	2100      	movs	r1, #0
 80020be:	4630      	mov	r0, r6
 80020c0:	6862      	ldr	r2, [r4, #4]
 80020c2:	f000 f831 	bl	8002128 <memchr>
 80020c6:	b108      	cbz	r0, 80020cc <_printf_i+0x1f4>
 80020c8:	1b80      	subs	r0, r0, r6
 80020ca:	6060      	str	r0, [r4, #4]
 80020cc:	6863      	ldr	r3, [r4, #4]
 80020ce:	6123      	str	r3, [r4, #16]
 80020d0:	2300      	movs	r3, #0
 80020d2:	f884 3043 	strb.w	r3, [r4, #67]	; 0x43
 80020d6:	e7a8      	b.n	800202a <_printf_i+0x152>
 80020d8:	4632      	mov	r2, r6
 80020da:	4649      	mov	r1, r9
 80020dc:	4640      	mov	r0, r8
 80020de:	6923      	ldr	r3, [r4, #16]
 80020e0:	47d0      	blx	sl
 80020e2:	3001      	adds	r0, #1
 80020e4:	d0ab      	beq.n	800203e <_printf_i+0x166>
 80020e6:	6823      	ldr	r3, [r4, #0]
 80020e8:	079b      	lsls	r3, r3, #30
 80020ea:	d413      	bmi.n	8002114 <_printf_i+0x23c>
 80020ec:	68e0      	ldr	r0, [r4, #12]
 80020ee:	9b03      	ldr	r3, [sp, #12]
 80020f0:	4298      	cmp	r0, r3
 80020f2:	bfb8      	it	lt
 80020f4:	4618      	movlt	r0, r3
 80020f6:	e7a4      	b.n	8002042 <_printf_i+0x16a>
 80020f8:	2301      	movs	r3, #1
 80020fa:	4632      	mov	r2, r6
 80020fc:	4649      	mov	r1, r9
 80020fe:	4640      	mov	r0, r8
 8002100:	47d0      	blx	sl
 8002102:	3001      	adds	r0, #1
 8002104:	d09b      	beq.n	800203e <_printf_i+0x166>
 8002106:	3501      	adds	r5, #1
 8002108:	68e3      	ldr	r3, [r4, #12]
 800210a:	9903      	ldr	r1, [sp, #12]
 800210c:	1a5b      	subs	r3, r3, r1
 800210e:	42ab      	cmp	r3, r5
 8002110:	dcf2      	bgt.n	80020f8 <_printf_i+0x220>
 8002112:	e7eb      	b.n	80020ec <_printf_i+0x214>
 8002114:	2500      	movs	r5, #0
 8002116:	f104 0619 	add.w	r6, r4, #25
 800211a:	e7f5      	b.n	8002108 <_printf_i+0x230>
 800211c:	08002249 	.word	0x08002249
 8002120:	0800225a 	.word	0x0800225a

08002124 <__retarget_lock_acquire_recursive>:
 8002124:	4770      	bx	lr

08002126 <__retarget_lock_release_recursive>:
 8002126:	4770      	bx	lr

08002128 <memchr>:
 8002128:	4603      	mov	r3, r0
 800212a:	b510      	push	{r4, lr}
 800212c:	b2c9      	uxtb	r1, r1
 800212e:	4402      	add	r2, r0
 8002130:	4293      	cmp	r3, r2
 8002132:	4618      	mov	r0, r3
 8002134:	d101      	bne.n	800213a <memchr+0x12>
 8002136:	2000      	movs	r0, #0
 8002138:	e003      	b.n	8002142 <memchr+0x1a>
 800213a:	7804      	ldrb	r4, [r0, #0]
 800213c:	3301      	adds	r3, #1
 800213e:	428c      	cmp	r4, r1
 8002140:	d1f6      	bne.n	8002130 <memchr+0x8>
 8002142:	bd10      	pop	{r4, pc}

08002144 <memcpy>:
 8002144:	440a      	add	r2, r1
 8002146:	4291      	cmp	r1, r2
 8002148:	f100 33ff 	add.w	r3, r0, #4294967295
 800214c:	d100      	bne.n	8002150 <memcpy+0xc>
 800214e:	4770      	bx	lr
 8002150:	b510      	push	{r4, lr}
 8002152:	f811 4b01 	ldrb.w	r4, [r1], #1
 8002156:	4291      	cmp	r1, r2
 8002158:	f803 4f01 	strb.w	r4, [r3, #1]!
 800215c:	d1f9      	bne.n	8002152 <memcpy+0xe>
 800215e:	bd10      	pop	{r4, pc}

08002160 <memmove>:
 8002160:	4288      	cmp	r0, r1
 8002162:	b510      	push	{r4, lr}
 8002164:	eb01 0402 	add.w	r4, r1, r2
 8002168:	d902      	bls.n	8002170 <memmove+0x10>
 800216a:	4284      	cmp	r4, r0
 800216c:	4623      	mov	r3, r4
 800216e:	d807      	bhi.n	8002180 <memmove+0x20>
 8002170:	1e43      	subs	r3, r0, #1
 8002172:	42a1      	cmp	r1, r4
 8002174:	d008      	beq.n	8002188 <memmove+0x28>
 8002176:	f811 2b01 	ldrb.w	r2, [r1], #1
 800217a:	f803 2f01 	strb.w	r2, [r3, #1]!
 800217e:	e7f8      	b.n	8002172 <memmove+0x12>
 8002180:	4601      	mov	r1, r0
 8002182:	4402      	add	r2, r0
 8002184:	428a      	cmp	r2, r1
 8002186:	d100      	bne.n	800218a <memmove+0x2a>
 8002188:	bd10      	pop	{r4, pc}
 800218a:	f813 4d01 	ldrb.w	r4, [r3, #-1]!
 800218e:	f802 4d01 	strb.w	r4, [r2, #-1]!
 8002192:	e7f7      	b.n	8002184 <memmove+0x24>

08002194 <_realloc_r>:
 8002194:	b5f8      	push	{r3, r4, r5, r6, r7, lr}
 8002196:	4607      	mov	r7, r0
 8002198:	4614      	mov	r4, r2
 800219a:	460e      	mov	r6, r1
 800219c:	b921      	cbnz	r1, 80021a8 <_realloc_r+0x14>
 800219e:	4611      	mov	r1, r2
 80021a0:	e8bd 40f8 	ldmia.w	sp!, {r3, r4, r5, r6, r7, lr}
 80021a4:	f7ff bc36 	b.w	8001a14 <_malloc_r>
 80021a8:	b922      	cbnz	r2, 80021b4 <_realloc_r+0x20>
 80021aa:	f7ff fbe7 	bl	800197c <_free_r>
 80021ae:	4625      	mov	r5, r4
 80021b0:	4628      	mov	r0, r5
 80021b2:	bdf8      	pop	{r3, r4, r5, r6, r7, pc}
 80021b4:	f000 f814 	bl	80021e0 <_malloc_usable_size_r>
 80021b8:	42a0      	cmp	r0, r4
 80021ba:	d20f      	bcs.n	80021dc <_realloc_r+0x48>
 80021bc:	4621      	mov	r1, r4
 80021be:	4638      	mov	r0, r7
 80021c0:	f7ff fc28 	bl	8001a14 <_malloc_r>
 80021c4:	4605      	mov	r5, r0
 80021c6:	2800      	cmp	r0, #0
 80021c8:	d0f2      	beq.n	80021b0 <_realloc_r+0x1c>
 80021ca:	4631      	mov	r1, r6
 80021cc:	4622      	mov	r2, r4
 80021ce:	f7ff ffb9 	bl	8002144 <memcpy>
 80021d2:	4631      	mov	r1, r6
 80021d4:	4638      	mov	r0, r7
 80021d6:	f7ff fbd1 	bl	800197c <_free_r>
 80021da:	e7e9      	b.n	80021b0 <_realloc_r+0x1c>
 80021dc:	4635      	mov	r5, r6
 80021de:	e7e7      	b.n	80021b0 <_realloc_r+0x1c>

080021e0 <_malloc_usable_size_r>:
 80021e0:	f851 3c04 	ldr.w	r3, [r1, #-4]
 80021e4:	1f18      	subs	r0, r3, #4
 80021e6:	2b00      	cmp	r3, #0
 80021e8:	bfbc      	itt	lt
 80021ea:	580b      	ldrlt	r3, [r1, r0]
 80021ec:	18c0      	addlt	r0, r0, r3
 80021ee:	4770      	bx	lr

080021f0 <_init>:
 80021f0:	b5f8      	push	{r3, r4, r5, r6, r7, lr}
 80021f2:	bf00      	nop
 80021f4:	bcf8      	pop	{r3, r4, r5, r6, r7}
 80021f6:	bc08      	pop	{r3}
 80021f8:	469e      	mov	lr, r3
 80021fa:	4770      	bx	lr

080021fc <_fini>:
 80021fc:	b5f8      	push	{r3, r4, r5, r6, r7, lr}
 80021fe:	bf00      	nop
 8002200:	bcf8      	pop	{r3, r4, r5, r6, r7}
 8002202:	bc08      	pop	{r3}
 8002204:	469e      	mov	lr, r3
 8002206:	4770      	bx	lr
